(lp0
(lp1
S'T'
p2
aS'C'
p3
aS'A'
p4
aS'G'
p5
aa(lp6
S'U'
p7
ag3
ag4
ag5
aa(lp8
g5
ag4
aS'V'
p9
aS'L'
p10
aS'I'
p11
aS'P'
p12
aS'M'
p13
ag3
aS'S'
p14
aS'F'
p15
aS'Y'
p16
aS'W'
p17
ag2
aS'N'
p18
aS'Q'
p19
aS'D'
p20
aS'E'
p21
aS'R'
p22
aS'H'
p23
aS'K'
p24
aS'*'
p25
aa(lp26
S'UUU'
p27
aS'UUC'
p28
aS'UUA'
p29
aS'UUG'
p30
aS'UCU'
p31
aS'UCC'
p32
aS'UCA'
p33
aS'UCG'
p34
aS'UAU'
p35
aS'UAC'
p36
aS'UAA'
p37
aS'UAG'
p38
aS'UGU'
p39
aS'UGC'
p40
aS'UGA'
p41
aS'UGG'
p42
aS'CUU'
p43
aS'CUC'
p44
aS'CUA'
p45
aS'CUG'
p46
aS'CCU'
p47
aS'CCC'
p48
aS'CCA'
p49
aS'CCG'
p50
aS'CAU'
p51
aS'CAC'
p52
aS'CAA'
p53
aS'CAG'
p54
aS'CGU'
p55
aS'CGC'
p56
aS'CGA'
p57
aS'CGG'
p58
aS'AUU'
p59
aS'AUC'
p60
aS'AUA'
p61
aS'AUG'
p62
aS'ACU'
p63
aS'ACC'
p64
aS'ACA'
p65
aS'ACG'
p66
aS'AAU'
p67
aS'AAC'
p68
aS'AAA'
p69
aS'AAG'
p70
aS'AGU'
p71
aS'AGC'
p72
aS'AGA'
p73
aS'AGG'
p74
aS'GUU'
p75
aS'GUC'
p76
aS'GUA'
p77
aS'GUG'
p78
aS'GCU'
p79
aS'GCC'
p80
aS'GCA'
p81
aS'GCG'
p82
aS'GAU'
p83
aS'GAC'
p84
aS'GAA'
p85
aS'GAG'
p86
aS'GGU'
p87
aS'GGC'
p88
aS'GGA'
p89
aS'GGG'
p90
aac__builtin__
set
p91
((lp92
(g82
S'GUG'
p93
tp94
a(g28
S'UAC'
p95
tp96
a(g59
S'GUU'
p97
tp98
a(g66
S'AGG'
p99
tp100
a(g53
S'CAG'
p101
tp102
a(g57
S'CGC'
p103
tp104
a(g84
S'GGC'
p105
tp106
a(g77
S'GUU'
p107
tp108
a(g46
S'CCG'
p109
tp110
a(g32
S'UGC'
p111
tp112
a(g67
S'CAU'
p113
tp114
a(g66
S'ACC'
p115
tp116
a(g79
S'GAU'
p117
tp118
a(g33
S'UCU'
p119
tp120
a(g52
S'GAC'
p121
tp122
a(g41
S'UGG'
p123
tp124
a(g35
S'UAA'
p125
tp126
a(g54
S'AAG'
p127
tp128
a(g90
S'GCG'
p129
tp130
a(g64
S'ACG'
p131
tp132
a(g88
S'GAC'
p133
tp134
a(g71
S'AGC'
p135
tp136
a(g66
S'ACA'
p137
tp138
a(g59
S'AAU'
p139
tp140
a(g52
S'AAC'
p141
tp142
a(g36
S'GAC'
p143
tp144
a(g38
S'CAG'
p145
tp146
a(g68
S'UAC'
p147
tp148
a(g90
S'UGG'
p149
tp150
a(g83
S'GAC'
p151
tp152
a(g69
S'AUA'
p153
tp154
a(g78
S'GCG'
p155
tp156
a(g75
S'AUU'
p157
tp158
a(g82
S'GGG'
p159
tp160
a(g72
S'ACC'
p161
tp162
a(g78
S'GGG'
p163
tp164
a(g49
S'UCA'
p165
tp166
a(g49
S'CGA'
p167
tp168
a(g62
S'AUU'
p169
tp170
a(g32
S'UCU'
p171
tp172
a(g50
S'UCG'
p173
tp174
a(g67
S'UAU'
p175
tp176
a(g73
S'AGG'
p177
tp178
a(g72
S'AGG'
p179
tp180
a(g37
S'UAG'
p181
tp182
a(g67
S'AAG'
p183
tp184
a(g80
S'GCG'
p185
tp186
a(g29
S'AUA'
p187
tp188
a(g89
S'GGC'
p189
tp190
a(g62
S'AGG'
p191
tp192
a(g69
S'CAA'
p193
tp194
a(g42
S'UUG'
p195
tp196
a(g53
S'CUA'
p197
tp198
a(g31
S'GCU'
p199
tp200
a(g55
S'CAU'
p201
tp202
a(g77
S'GCA'
p203
tp204
a(g85
S'AAA'
p205
tp206
a(g33
S'GCA'
p207
tp208
a(g51
S'CAG'
p209
tp210
a(g86
S'GAC'
p211
tp212
a(g32
S'UCA'
p213
tp214
a(g32
S'GCC'
p215
tp216
a(g49
S'CUA'
p217
tp218
a(g40
S'UAC'
p219
tp220
a(g43
S'AUU'
p221
tp222
a(g31
S'UCA'
p223
tp224
a(g56
S'CUC'
p225
tp226
a(g71
S'AUU'
p227
tp228
a(g75
S'CUU'
p229
tp230
a(g35
S'CAU'
p231
tp232
a(g64
S'UCC'
p233
tp234
a(g43
S'UUU'
p235
tp236
a(g71
S'ACU'
p237
tp238
a(g47
S'GCU'
p239
tp240
a(g61
S'AUG'
p241
tp242
a(g59
S'AUG'
p243
tp244
a(g36
S'UAU'
p245
tp246
a(g83
S'GCU'
p247
tp248
a(g62
S'ACG'
p249
tp250
a(g80
S'GAC'
p251
tp252
a(g55
S'CGC'
p253
tp254
a(g45
S'CUG'
p255
tp256
a(g27
S'UGU'
p257
tp258
a(g73
S'AGU'
p259
tp260
a(g81
S'ACA'
p261
tp262
a(g86
S'GUG'
p263
tp264
a(g47
S'CAU'
p265
tp266
a(g44
S'CAC'
p267
tp268
a(g81
S'GCU'
p269
tp270
a(g80
S'GUC'
p271
tp272
a(g58
S'CCG'
p273
tp274
a(g47
S'CGU'
p275
tp276
a(g73
S'GGA'
p277
tp278
a(g61
S'ACA'
p279
tp280
a(g86
S'GAU'
p281
tp282
a(g89
S'GGG'
p283
tp284
a(g86
S'UAG'
p285
tp286
a(g76
S'CUC'
p287
tp288
a(g28
S'UUU'
p289
tp290
a(g32
S'ACC'
p291
tp292
a(g41
S'UAA'
p293
tp294
a(g73
S'AUA'
p295
tp296
a(g55
S'AGU'
p297
tp298
a(g64
S'CCC'
p299
tp300
a(g56
S'CGU'
p301
tp302
a(g65
S'CCA'
p303
tp304
a(g34
S'ACG'
p305
tp306
a(g59
S'CUU'
p307
tp308
a(g66
S'CCG'
p309
tp310
a(g82
S'GCC'
p311
tp312
a(g65
S'ACG'
p313
tp314
a(g90
S'GGU'
p315
tp316
a(g80
S'CCC'
p317
tp318
a(g59
S'ACU'
p319
tp320
a(g61
S'AUU'
p321
tp322
a(g87
S'GGG'
p323
tp324
a(g70
S'AAC'
p325
tp326
a(g36
S'UAG'
p327
tp328
a(g78
S'GAG'
p329
tp330
a(g52
S'CGC'
p331
tp332
a(g74
S'AGA'
p333
tp334
a(g71
S'AGG'
p335
tp336
a(g34
S'UCA'
p337
tp338
a(g48
S'UCC'
p339
tp340
a(g39
S'UCU'
p341
tp342
a(g72
S'AAC'
p343
tp344
a(g45
S'CUC'
p345
tp346
a(g79
S'UCU'
p347
tp348
a(g48
S'CAC'
p349
tp350
a(g41
S'GGA'
p351
tp352
a(g60
S'AUG'
p353
tp354
a(g74
S'AAG'
p355
tp356
a(g33
S'UCC'
p357
tp358
a(g69
S'UAA'
p359
tp360
a(g61
S'AGA'
p361
tp362
a(g32
S'CCC'
p363
tp364
a(g37
S'UAC'
p365
tp366
a(g51
S'UAU'
p367
tp368
a(g60
S'AGC'
p369
tp370
a(g78
S'GUA'
p371
tp372
a(g33
S'CCA'
p373
tp374
a(g64
S'AGC'
p375
tp376
a(g54
S'CAC'
p377
tp378
a(g87
S'GUU'
p379
tp380
a(g29
S'UUC'
p381
tp382
a(g87
S'GCU'
p383
tp384
a(g47
S'ACU'
p385
tp386
a(g65
S'AAA'
p387
tp388
a(g28
S'UUA'
p389
tp390
a(g56
S'CGG'
p391
tp392
a(g46
S'CUC'
p393
tp394
a(g32
S'UCG'
p395
tp396
a(g47
S'CUU'
p397
tp398
a(g70
S'UAG'
p399
tp400
a(g31
S'UCC'
p401
tp402
a(g83
S'UAU'
p403
tp404
a(g84
S'GCC'
p405
tp406
a(g65
S'ACU'
p407
tp408
a(g89
S'GGU'
p409
tp410
a(g57
S'CGU'
p411
tp412
a(g49
S'CCG'
p413
tp414
a(g43
S'CAU'
p415
tp416
a(g41
S'CGA'
p417
tp418
a(g85
S'GAG'
p419
tp420
a(g60
S'ACC'
p421
tp422
a(g77
S'GGA'
p423
tp424
a(g59
S'AUA'
p425
tp426
a(g49
S'ACA'
p427
tp428
a(g82
S'GAG'
p429
tp430
a(g84
S'GAU'
p431
tp432
a(g83
S'GGU'
p433
tp434
a(g54
S'GAG'
p435
tp436
a(g38
S'UAU'
p437
tp438
a(g72
S'AUC'
p439
tp440
a(g34
S'UCC'
p441
tp442
a(g90
S'GAG'
p443
tp444
a(g48
S'CCU'
p445
tp446
a(g50
S'ACG'
p447
tp448
a(g37
S'UCA'
p449
tp450
a(g79
S'GGU'
p451
tp452
a(g27
S'UUG'
p453
tp454
a(g50
S'CGG'
p455
tp456
a(g70
S'CAG'
p457
tp458
a(g74
S'AGC'
p459
tp460
a(g64
S'AUC'
p461
tp462
a(g80
S'GCA'
p463
tp464
a(g68
S'AAG'
p465
tp466
a(g47
S'CCG'
p467
tp468
a(g68
S'AAU'
p469
tp470
a(g53
S'CAC'
p471
tp472
a(g54
S'CUG'
p473
tp474
a(g34
S'UAG'
p475
tp476
a(g53
S'CCA'
p477
tp478
a(g40
S'UUC'
p479
tp480
a(g47
S'CCA'
p481
tp482
a(g54
S'CCG'
p483
tp484
a(g58
S'AGG'
p485
tp486
a(g52
S'CUC'
p487
tp488
a(g32
S'UAC'
p489
tp490
a(g31
S'CCU'
p491
tp492
a(g67
S'AAA'
p493
tp494
a(g40
S'UGA'
p495
tp496
a(g87
S'GGA'
p497
tp498
a(g65
S'AUA'
p499
tp500
a(g31
S'ACU'
p501
tp502
a(g57
S'UGA'
p503
tp504
a(g57
S'CCA'
p505
tp506
a(g78
S'GUC'
p507
tp508
a(g38
S'UGG'
p509
tp510
a(g44
S'CUA'
p511
tp512
a(g56
S'UGC'
p513
tp514
a(g57
S'CUA'
p515
tp516
a(g60
S'CUC'
p517
tp518
a(g68
S'ACC'
p519
tp520
a(g83
S'GAG'
p521
tp522
a(g83
S'GAA'
p523
tp524
a(g69
S'AAG'
p525
tp526
a(g74
S'AUG'
p527
tp528
a(g50
S'GCG'
p529
tp530
a(g66
S'GCG'
p531
tp532
a(g34
S'GCG'
p533
tp534
a(g85
S'GCA'
p535
tp536
a(g89
S'AGA'
p537
tp538
a(g39
S'CGU'
p539
tp540
a(g79
S'GCG'
p541
tp542
a(g41
S'UGC'
p543
tp544
a(g89
S'UGA'
p545
tp546
a(g74
S'ACG'
p547
tp548
a(g77
S'UUA'
p549
tp550
a(g72
S'GGC'
p551
tp552
a(g69
S'AGA'
p553
tp554
a(g31
S'UAU'
p555
tp556
a(g67
S'AAC'
p557
tp558
a(g60
S'AAC'
p559
tp560
a(g40
S'AGC'
p561
tp562
a(g37
S'CAA'
p563
tp564
a(g55
S'CUU'
p565
tp566
a(g41
S'AGA'
p567
tp568
a(g90
S'CGG'
p569
tp570
a(g88
S'GUC'
p571
tp572
a(g54
S'CAA'
p573
tp574
a(g42
S'AGG'
p575
tp576
a(g36
S'CAC'
p577
tp578
a(g77
S'AUA'
p579
tp580
a(g46
S'GUG'
p581
tp582
a(g33
S'UCG'
p583
tp584
a(g57
S'GGA'
p585
tp586
a(g46
S'CUA'
p587
tp588
a(g53
S'GAA'
p589
tp590
a(g35
S'AAU'
p591
tp592
a(g64
S'ACU'
p593
tp594
a(g42
S'CGG'
p595
tp596
a(g40
S'UGU'
p597
tp598
a(g75
S'GUC'
p599
tp600
a(g36
S'UUC'
p601
tp602
a(g53
S'AAA'
p603
tp604
a(g73
S'AGC'
p605
tp606
a(g69
S'GAA'
p607
tp608
a(g69
S'AAC'
p609
tp610
a(g58
S'CAG'
p611
tp612
a(g51
S'AAU'
p613
tp614
a(g44
S'CUU'
p615
tp616
a(g44
S'CCC'
p617
tp618
a(g83
S'CAU'
p619
tp620
a(g45
S'CCA'
p621
tp622
a(g29
S'UCA'
p623
tp624
a(g76
S'GAC'
p625
tp626
a(g58
S'CGU'
p627
tp628
a(g79
S'GUU'
p629
tp630
a(g43
S'CUG'
p631
tp632
a(g83
S'AAU'
p633
tp634
a(g63
S'AGU'
p635
tp636
a(g39
S'UGA'
p637
tp638
a(g68
S'CAC'
p639
tp640
a(g27
S'UUA'
p641
tp642
a(g49
S'CAA'
p643
tp644
a(g68
S'AUC'
p645
tp646
a(g63
S'ACA'
p647
tp648
a(g77
S'GUC'
p649
tp650
a(g37
S'AAA'
p651
tp652
a(g67
S'ACU'
p653
tp654
a(g46
S'CGG'
p655
tp656
a(g30
S'UGG'
p657
tp658
a(g35
S'UUU'
p659
tp660
a(g57
S'AGA'
p661
tp662
a(g56
S'AGC'
p663
tp664
a(g47
S'CCC'
p665
tp666
a(g43
S'GUU'
p667
tp668
a(g81
S'GAA'
p669
tp670
a(g66
S'AAG'
p671
tp672
a(g84
S'AAC'
p673
tp674
a(g35
S'UAC'
p675
tp676
a(g75
S'GCU'
p677
tp678
a(g40
S'UGG'
p679
tp680
a(g80
S'UCC'
p681
tp682
a(g37
S'UGA'
p683
tp684
a(g64
S'AAC'
p685
tp686
a(g65
S'UCA'
p687
tp688
a(g86
S'AAG'
p689
tp690
a(g57
S'CAA'
p691
tp692
a(g44
S'CUG'
p693
tp694
a(g87
S'GGC'
p695
tp696
a(g48
S'CCG'
p697
tp698
a(g28
S'GUC'
p699
tp700
a(g79
S'CCU'
p701
tp702
a(g29
S'GUA'
p703
tp704
a(g74
S'UGG'
p705
tp706
a(g79
S'ACU'
p707
tp708
a(g76
S'GGC'
p709
tp710
a(g75
S'GAU'
p711
tp712
a(g78
S'AUG'
p713
tp714
a(g86
S'GCG'
p715
tp716
a(g63
S'AAU'
p717
tp718
a(g79
S'GCA'
p719
tp720
a(g58
S'UGG'
p721
tp722
a(g39
S'UGC'
p723
tp724
a(g46
S'UUG'
p725
tp726
a(g30
S'CUG'
p727
tp728
a(g76
S'AUC'
p729
tp730
a(g76
S'GUU'
p731
tp732
a(g53
S'UAA'
p733
tp734
a(g43
S'CCU'
p735
tp736
a(g27
S'AUU'
p737
tp738
a(g45
S'GUA'
p739
tp740
a(g29
S'UUG'
p741
tp742
a(g65
S'AGA'
p743
tp744
a(g45
S'AUA'
p745
tp746
a(g39
S'GGU'
p747
tp748
a(g63
S'GCU'
p749
tp750
a(g65
S'ACC'
p751
tp752
a(g88
S'UGC'
p753
tp754
a(g42
S'UAG'
p755
tp756
a(g59
S'AUC'
p757
tp758
a(g85
S'UAA'
p759
tp760
a(g31
S'UCG'
p761
tp762
a(g38
S'UUG'
p763
tp764
a(g88
S'AGC'
p765
tp766
a(g42
S'UCG'
p767
tp768
a(g50
S'CAG'
p769
tp770
a(g71
S'CGU'
p771
tp772
a(g53
S'CGA'
p773
tp774
a(g63
S'UCU'
p775
tp776
a(g71
S'AAU'
p777
tp778
a(g80
S'ACC'
p779
tp780
a(g72
S'UGC'
p781
tp782
a(g51
S'CGU'
p783
tp784
a(g82
S'CCG'
p785
tp786
a(g81
S'UCA'
p787
tp788
a(g44
S'CGC'
p789
tp790
a(g71
S'UGU'
p791
tp792
a(g59
S'UUU'
p793
tp794
a(g30
S'AUG'
p795
tp796
a(g61
S'CUA'
p797
tp798
a(g38
S'UAC'
p799
tp800
a(g29
S'UGA'
p801
tp802
a(g43
S'CUC'
p803
tp804
a(g60
S'AUU'
p805
tp806
a(g27
S'UUC'
p807
tp808
a(g30
S'UAG'
p809
tp810
a(g75
S'UUU'
p811
tp812
a(g46
S'CAG'
p813
tp814
a(g63
S'ACC'
p815
tp816
a(g29
S'UAA'
p817
tp818
a(g46
S'CUU'
p819
tp820
a(g86
S'GGG'
p821
tp822
a(g58
S'GGG'
p823
tp824
a(g77
S'GUG'
p825
tp826
a(g81
S'GCG'
p827
tp828
a(g50
S'CCC'
p829
tp830
a(g63
S'CCU'
p831
tp832
a(g70
S'ACG'
p833
tp834
a(g34
S'UCU'
p835
tp836
a(g53
S'CAU'
p837
tp838
a(g43
S'CGU'
p839
tp840
a(g60
S'UUC'
p841
tp842
a(g89
S'GCA'
p843
tp844
a(g69
S'AAU'
p845
tp846
a(g51
S'CAA'
p847
tp848
a(g66
S'ACU'
p849
tp850
a(g89
S'CGA'
p851
tp852
a(g40
S'UCC'
p853
tp854
a(g82
S'UCG'
p855
tp856
a(g57
S'CGG'
p857
tp858
a(g45
S'CUU'
p859
tp860
a(g27
S'UAU'
p861
tp862
a(g71
S'GGU'
p863
tp864
a(g40
S'CGC'
p865
tp866
a(g66
S'UCG'
p867
tp868
a(g65
S'GCA'
p869
tp870
a(g30
S'GUG'
p871
tp872
a(g89
S'GUA'
p873
tp874
a(g42
S'UGA'
p875
tp876
a(g56
S'GGC'
p877
tp878
a(g87
S'AGU'
p879
tp880
a(g64
S'GCC'
p881
tp882
a(g36
S'UAA'
p883
tp884
a(g38
S'AAG'
p885
tp886
a(g37
S'UUA'
p887
tp888
a(g80
S'GGC'
p889
tp890
a(g87
S'GAU'
p891
tp892
a(g45
S'UUA'
p893
tp894
a(g73
S'ACA'
p895
tp896
a(g74
S'AGU'
p897
tp898
a(g55
S'UGU'
p899
tp900
a(g62
S'UUG'
p901
tp902
a(g36
S'UCC'
p903
tp904
a(g28
S'CUC'
p905
tp906
a(g44
S'GUC'
p907
tp908
a(g60
S'AUA'
p909
tp910
a(g43
S'CUA'
p911
tp912
a(g38
S'GAG'
p913
tp914
a(g75
S'GUG'
p915
tp916
a(g74
S'CGG'
p917
tp918
a(g28
S'AUC'
p919
tp920
a(g78
S'CUG'
p921
tp922
a(g33
S'ACA'
p923
tp924
a(g88
S'GCC'
p925
tp926
a(g56
S'CGA'
p927
tp928
a(g66
S'AUG'
p929
tp930
a(g48
S'GCC'
p931
tp932
a(g49
S'GCA'
p933
tp934
a(g90
S'AGG'
p935
tp936
a(g84
S'GAG'
p937
tp938
a(g61
S'GUA'
p939
tp940
a(g42
S'UGU'
p941
tp942
a(g90
S'GGC'
p943
tp944
a(g33
S'UAA'
p945
tp946
a(g85
S'GGA'
p947
tp948
a(g30
S'UUA'
p949
tp950
a(g51
S'GAU'
p951
tp952
a(g45
S'CGA'
p953
tp954
a(g50
S'CUG'
p955
tp956
a(g86
S'GAA'
p957
tp958
a(g59
S'AGU'
p959
tp960
a(g86
S'CAG'
p961
tp962
a(g51
S'CCU'
p963
tp964
a(g76
S'UUC'
p965
tp966
a(g38
S'UAA'
p967
tp968
a(g58
S'CGC'
p969
tp970
a(g67
S'GAU'
p971
tp972
a(g85
S'GUA'
p973
tp974
a(g50
S'CCA'
p975
tp976
a(g88
S'GGA'
p977
tp978
a(g84
S'GUC'
p979
tp980
a(g30
S'UCG'
p981
tp982
a(g85
S'CAA'
p983
tp984
a(g48
S'CCA'
p985
tp986
a(g72
S'CGC'
p987
tp988
a(g33
S'UGA'
p989
tp990
a(g75
S'GUA'
p991
tp992
a(g76
S'GUG'
p993
tp994
a(g28
S'UUG'
p995
tp996
a(g67
S'AUU'
p997
tp998
a(g51
S'CAC'
p999
tp1000
a(g35
S'GAU'
p1001
tp1002
a(g68
S'AGC'
p1003
tp1004
a(g80
S'GCU'
p1005
tp1006
a(g88
S'GGU'
p1007
tp1008
a(g84
S'GAA'
p1009
tp1010
a(g68
S'GAC'
p1011
tp1012
a(g52
S'UAC'
p1013
tp1014
a(g30
S'UUC'
p1015
tp1016
a(g35
S'UGU'
p1017
tp1018
a(g90
S'GGA'
p1019
tp1020
a(g61
S'AUC'
p1021
tp1022
a(g62
S'GUG'
p1023
tp1024
a(g70
S'AUG'
p1025
tp1026
a(g27
S'UCU'
p1027
tp1028
a(g70
S'AAU'
p1029
tp1030
a(g31
S'UUU'
p1031
tp1032
a(g34
S'UUG'
p1033
tp1034
a(g77
S'GAA'
p1035
tp1036
a(g52
S'CAA'
p1037
tp1038
a(g62
S'AUC'
p1039
tp1040
a(g38
S'UCG'
p1041
tp1042
a(g79
S'GCC'
p1043
tp1044
a(g51
S'CUU'
p1045
tp1046
a(g44
S'AUC'
p1047
tp1048
a(g39
S'AGU'
p1049
tp1050
a(g90
S'GUG'
p1051
tp1052
a(g50
S'CCU'
p1053
tp1054
a(g89
S'GAA'
p1055
tp1056
a(g55
S'GGU'
p1057
tp1058
a(g36
S'AAC'
p1059
tp1060
a(g76
S'GCC'
p1061
tp1062
a(g34
S'CCG'
p1063
tp1064
a(g68
S'AAA'
p1065
tp1066
a(g56
S'CCC'
p1067
tp1068
a(g82
S'GCA'
p1069
tp1070
a(g42
S'GGG'
p1071
tp1072
a(g41
S'UGU'
p1073
tp1074
a(g54
S'CAU'
p1075
tp1076
a(g69
S'ACA'
p1077
tp1078
a(g83
S'GUU'
p1079
tp1080
a(g81
S'CCA'
p1081
tp1082
a(g88
S'CGC'
p1083
tp1084
a(g27
S'CUU'
p1085
tp1086
a(g40
S'GGC'
p1087
tp1088
a(g31
S'UGU'
p1089
tp1090
a(g81
S'GCC'
p1091
tp1092
a(g30
S'UUU'
p1093
tp1094
a(g88
S'GGG'
p1095
tp1096
a(g35
S'UAG'
p1097
tp1098
a(g78
S'GUU'
p1099
tp1100
a(g64
S'ACA'
p1101
tp1102
a(g61
S'UUA'
p1103
tp1104
a(g46
S'AUG'
p1105
tp1106
a(g71
S'AGA'
p1107
tp1108
a(g52
S'CCC'
p1109
tp1110
a(g48
S'CUC'
p1111
tp1112
a(g39
S'UUU'
p1113
tp1114
a(g49
S'CCU'
p1115
tp1116
a(g74
S'GGG'
p1117
tp1118
a(g54
S'UAG'
p1119
tp1120
a(g73
S'UGA'
p1121
tp1122
a(g48
S'ACC'
p1123
tp1124
a(g81
S'GGA'
p1125
tp1126
a(g29
S'CUA'
p1127
tp1128
a(g55
S'CCU'
p1129
tp1130
a(g52
S'CAU'
p1131
tp1132
a(g48
S'CGC'
p1133
tp1134
a(g73
S'AAA'
p1135
tp1136
a(g87
S'CGU'
p1137
tp1138
a(g58
S'CGA'
p1139
tp1140
a(g39
S'UGG'
p1141
tp1142
a(g72
S'AGA'
p1143
tp1144
a(g28
S'UCC'
p1145
tp1146
a(g45
S'CAA'
p1147
tp1148
a(g44
S'UUC'
p1149
tp1150
a(g28
S'UGC'
p1151
tp1152
a(g63
S'ACG'
p1153
tp1154
a(g77
S'CUA'
p1155
tp1156
a(g85
S'GAC'
p1157
tp1158
a(g67
S'AGU'
p1159
tp1160
a(g70
S'GAG'
p1161
tp1162
a(g27
S'GUU'
p1163
tp1164
a(g41
S'UCA'
p1165
tp1166
a(g78
S'UUG'
p1167
tp1168
a(g47
S'UCU'
p1169
tp1170
a(g81
S'GUA'
p1171
tp1172
a(g82
S'GCU'
p1173
tp1174
a(g35
S'UCU'
p1175
tp1176
a(g70
S'AAA'
p1177
tp1178
a(g55
S'CGG'
p1179
tp1180
a(g82
S'ACG'
p1181
tp1182
a(g37
S'GAA'
p1183
tp1184
a(g70
S'AGG'
p1185
tp1186
a(g85
S'GAU'
p1187
tp1188
a(g87
S'UGU'
p1189
tp1190
a(g34
S'UGG'
p1191
tp1192
a(g49
S'CCC'
p1193
tp1194
a(g56
S'CAC'
p1195
tp1196
a(g41
S'UUA'
p1197
tp1198
a(g60
S'GUC'
p1199
tp1200
a(g54
S'CGG'
p1201
tp1202
a(g37
S'UAU'
p1203
tp1204
a(g39
S'UAU'
p1205
tp1206
a(g58
S'CUG'
p1207
tp1208
a(g52
S'CAG'
p1209
tp1210
a(g62
S'AUA'
p1211
tp1212
a(g55
S'CGA'
p1213
tp1214
a(g62
S'AAG'
p1215
tp1216
a(g29
S'UUU'
p1217
tp1218
a(g73
S'CGA'
p1219
tp1220
a(g63
S'AUU'
p1221
tp1222
a(g75
S'GGU'
p1223
tp1224
a(g72
S'AGU'
p1225
tp1226
a(g32
S'UUC'
p1227
tp1228
a(g62
S'CUG'
p1229
tp1230
a(g36
S'UGC'
p1231
tp1232
a(g61
S'AAA'
p1233
tp1234
a(g33
S'UUA'
p1235
tp1236
a(g42
S'UGC'
p1237
tp1238
a(g76
S'GUA'
p1239
tp1240
a(g84
S'UAC'
p1241
tp1242
a(g84
S'CAC'
p1243
tp1244
atp1245
Rp1246
a(lp1247
S'UUUU'
p1248
aS'UUUC'
p1249
aS'UUUA'
p1250
aS'UUUG'
p1251
aS'UUCU'
p1252
aS'UUCC'
p1253
aS'UUCA'
p1254
aS'UUCG'
p1255
aS'UUAU'
p1256
aS'UUAC'
p1257
aS'UUAA'
p1258
aS'UUAG'
p1259
aS'UUGU'
p1260
aS'UUGC'
p1261
aS'UUGA'
p1262
aS'UUGG'
p1263
aS'UCUU'
p1264
aS'UCUC'
p1265
aS'UCUA'
p1266
aS'UCUG'
p1267
aS'UCCU'
p1268
aS'UCCC'
p1269
aS'UCCA'
p1270
aS'UCCG'
p1271
aS'UCAU'
p1272
aS'UCAC'
p1273
aS'UCAA'
p1274
aS'UCAG'
p1275
aS'UCGU'
p1276
aS'UCGC'
p1277
aS'UCGA'
p1278
aS'UCGG'
p1279
aS'UAUU'
p1280
aS'UAUC'
p1281
aS'UAUA'
p1282
aS'UAUG'
p1283
aS'UACU'
p1284
aS'UACC'
p1285
aS'UACA'
p1286
aS'UACG'
p1287
aS'UAAU'
p1288
aS'UAAC'
p1289
aS'UAAA'
p1290
aS'UAAG'
p1291
aS'UAGU'
p1292
aS'UAGC'
p1293
aS'UAGA'
p1294
aS'UAGG'
p1295
aS'UGUU'
p1296
aS'UGUC'
p1297
aS'UGUA'
p1298
aS'UGUG'
p1299
aS'UGCU'
p1300
aS'UGCC'
p1301
aS'UGCA'
p1302
aS'UGCG'
p1303
aS'UGAU'
p1304
aS'UGAC'
p1305
aS'UGAA'
p1306
aS'UGAG'
p1307
aS'UGGU'
p1308
aS'UGGC'
p1309
aS'UGGA'
p1310
aS'UGGG'
p1311
aS'CUUU'
p1312
aS'CUUC'
p1313
aS'CUUA'
p1314
aS'CUUG'
p1315
aS'CUCU'
p1316
aS'CUCC'
p1317
aS'CUCA'
p1318
aS'CUCG'
p1319
aS'CUAU'
p1320
aS'CUAC'
p1321
aS'CUAA'
p1322
aS'CUAG'
p1323
aS'CUGU'
p1324
aS'CUGC'
p1325
aS'CUGA'
p1326
aS'CUGG'
p1327
aS'CCUU'
p1328
aS'CCUC'
p1329
aS'CCUA'
p1330
aS'CCUG'
p1331
aS'CCCU'
p1332
aS'CCCC'
p1333
aS'CCCA'
p1334
aS'CCCG'
p1335
aS'CCAU'
p1336
aS'CCAC'
p1337
aS'CCAA'
p1338
aS'CCAG'
p1339
aS'CCGU'
p1340
aS'CCGC'
p1341
aS'CCGA'
p1342
aS'CCGG'
p1343
aS'CAUU'
p1344
aS'CAUC'
p1345
aS'CAUA'
p1346
aS'CAUG'
p1347
aS'CACU'
p1348
aS'CACC'
p1349
aS'CACA'
p1350
aS'CACG'
p1351
aS'CAAU'
p1352
aS'CAAC'
p1353
aS'CAAA'
p1354
aS'CAAG'
p1355
aS'CAGU'
p1356
aS'CAGC'
p1357
aS'CAGA'
p1358
aS'CAGG'
p1359
aS'CGUU'
p1360
aS'CGUC'
p1361
aS'CGUA'
p1362
aS'CGUG'
p1363
aS'CGCU'
p1364
aS'CGCC'
p1365
aS'CGCA'
p1366
aS'CGCG'
p1367
aS'CGAU'
p1368
aS'CGAC'
p1369
aS'CGAA'
p1370
aS'CGAG'
p1371
aS'CGGU'
p1372
aS'CGGC'
p1373
aS'CGGA'
p1374
aS'CGGG'
p1375
aS'AUUU'
p1376
aS'AUUC'
p1377
aS'AUUA'
p1378
aS'AUUG'
p1379
aS'AUCU'
p1380
aS'AUCC'
p1381
aS'AUCA'
p1382
aS'AUCG'
p1383
aS'AUAU'
p1384
aS'AUAC'
p1385
aS'AUAA'
p1386
aS'AUAG'
p1387
aS'AUGU'
p1388
aS'AUGC'
p1389
aS'AUGA'
p1390
aS'AUGG'
p1391
aS'ACUU'
p1392
aS'ACUC'
p1393
aS'ACUA'
p1394
aS'ACUG'
p1395
aS'ACCU'
p1396
aS'ACCC'
p1397
aS'ACCA'
p1398
aS'ACCG'
p1399
aS'ACAU'
p1400
aS'ACAC'
p1401
aS'ACAA'
p1402
aS'ACAG'
p1403
aS'ACGU'
p1404
aS'ACGC'
p1405
aS'ACGA'
p1406
aS'ACGG'
p1407
aS'AAUU'
p1408
aS'AAUC'
p1409
aS'AAUA'
p1410
aS'AAUG'
p1411
aS'AACU'
p1412
aS'AACC'
p1413
aS'AACA'
p1414
aS'AACG'
p1415
aS'AAAU'
p1416
aS'AAAC'
p1417
aS'AAAA'
p1418
aS'AAAG'
p1419
aS'AAGU'
p1420
aS'AAGC'
p1421
aS'AAGA'
p1422
aS'AAGG'
p1423
aS'AGUU'
p1424
aS'AGUC'
p1425
aS'AGUA'
p1426
aS'AGUG'
p1427
aS'AGCU'
p1428
aS'AGCC'
p1429
aS'AGCA'
p1430
aS'AGCG'
p1431
aS'AGAU'
p1432
aS'AGAC'
p1433
aS'AGAA'
p1434
aS'AGAG'
p1435
aS'AGGU'
p1436
aS'AGGC'
p1437
aS'AGGA'
p1438
aS'AGGG'
p1439
aS'GUUU'
p1440
aS'GUUC'
p1441
aS'GUUA'
p1442
aS'GUUG'
p1443
aS'GUCU'
p1444
aS'GUCC'
p1445
aS'GUCA'
p1446
aS'GUCG'
p1447
aS'GUAU'
p1448
aS'GUAC'
p1449
aS'GUAA'
p1450
aS'GUAG'
p1451
aS'GUGU'
p1452
aS'GUGC'
p1453
aS'GUGA'
p1454
aS'GUGG'
p1455
aS'GCUU'
p1456
aS'GCUC'
p1457
aS'GCUA'
p1458
aS'GCUG'
p1459
aS'GCCU'
p1460
aS'GCCC'
p1461
aS'GCCA'
p1462
aS'GCCG'
p1463
aS'GCAU'
p1464
aS'GCAC'
p1465
aS'GCAA'
p1466
aS'GCAG'
p1467
aS'GCGU'
p1468
aS'GCGC'
p1469
aS'GCGA'
p1470
aS'GCGG'
p1471
aS'GAUU'
p1472
aS'GAUC'
p1473
aS'GAUA'
p1474
aS'GAUG'
p1475
aS'GACU'
p1476
aS'GACC'
p1477
aS'GACA'
p1478
aS'GACG'
p1479
aS'GAAU'
p1480
aS'GAAC'
p1481
aS'GAAA'
p1482
aS'GAAG'
p1483
aS'GAGU'
p1484
aS'GAGC'
p1485
aS'GAGA'
p1486
aS'GAGG'
p1487
aS'GGUU'
p1488
aS'GGUC'
p1489
aS'GGUA'
p1490
aS'GGUG'
p1491
aS'GGCU'
p1492
aS'GGCC'
p1493
aS'GGCA'
p1494
aS'GGCG'
p1495
aS'GGAU'
p1496
aS'GGAC'
p1497
aS'GGAA'
p1498
aS'GGAG'
p1499
aS'GGGU'
p1500
aS'GGGC'
p1501
aS'GGGA'
p1502
aS'GGGG'
p1503
aag91
((lp1504
(g1310
S'UUGA'
p1505
tp1506
a(g1468
S'CCGU'
p1507
tp1508
a(g1389
S'AUUC'
p1509
tp1510
a(g1439
S'AGGU'
p1511
tp1512
a(g1436
S'UGGU'
p1513
tp1514
a(g1492
S'GUCU'
p1515
tp1516
a(g1365
S'CGGC'
p1517
tp1518
a(g1279
S'UCGA'
p1519
tp1520
a(g1289
S'UAGC'
p1521
tp1522
a(g1353
S'AAAC'
p1523
tp1524
a(g1501
S'GGGG'
p1525
tp1526
a(g1404
S'ACGG'
p1527
tp1528
a(g1443
S'GUAG'
p1529
tp1530
a(g1439
S'AGGC'
p1531
tp1532
a(g1450
S'GCAA'
p1533
tp1534
a(g1364
S'CGGU'
p1535
tp1536
a(g1305
S'CGAC'
p1537
tp1538
a(g1281
S'UAUA'
p1539
tp1540
a(g1390
S'AUGU'
p1541
tp1542
a(g1406
S'AGGA'
p1543
tp1544
a(g1279
S'UGGG'
p1545
tp1546
a(g1340
S'CGGU'
p1547
tp1548
a(g1445
S'GUUC'
p1549
tp1550
a(g1485
S'GAGU'
p1551
tp1552
a(g1480
S'GAAG'
p1553
tp1554
a(g1444
S'GUCC'
p1555
tp1556
a(g1410
S'AGUA'
p1557
tp1558
a(g1500
S'GAGU'
p1559
tp1560
a(g1403
S'ACAC'
p1561
tp1562
a(g1301
S'UACC'
p1563
tp1564
a(g1444
S'CUCU'
p1565
tp1566
a(g1439
S'AGGA'
p1567
tp1568
a(g1493
S'GACC'
p1569
tp1570
a(g1390
S'AUCA'
p1571
tp1572
a(g1291
S'UGAG'
p1573
tp1574
a(g1468
S'GCGC'
p1575
tp1576
a(g1264
S'UCUC'
p1577
tp1578
a(g1366
S'AGCA'
p1579
tp1580
a(g1263
S'UUAG'
p1581
tp1582
a(g1415
S'AACA'
p1583
tp1584
a(g1489
S'UGUC'
p1585
tp1586
a(g1449
S'AUAC'
p1587
tp1588
a(g1454
S'GCGA'
p1589
tp1590
a(g1261
S'UUAC'
p1591
tp1592
a(g1501
S'GGCC'
p1593
tp1594
a(g1456
S'GCGU'
p1595
tp1596
a(g1263
S'UCGG'
p1597
tp1598
a(g1408
S'AACU'
p1599
tp1600
a(g1283
S'AAUG'
p1601
tp1602
a(g1385
S'AUUC'
p1603
tp1604
a(g1256
S'UUAG'
p1605
tp1606
a(g1326
S'AUGA'
p1607
tp1608
a(g1481
S'GAAA'
p1609
tp1610
a(g1416
S'AGAU'
p1611
tp1612
a(g1420
S'AAGG'
p1613
tp1614
a(g1474
S'CAUA'
p1615
tp1616
a(g1287
S'AACG'
p1617
tp1618
a(g1486
S'AAGA'
p1619
tp1620
a(g1275
S'GCAG'
p1621
tp1622
a(g1498
S'GAAA'
p1623
tp1624
a(g1446
S'GCCA'
p1625
tp1626
a(g1362
S'AGUA'
p1627
tp1628
a(g1488
S'AGUU'
p1629
tp1630
a(g1464
S'UCAU'
p1631
tp1632
a(g1448
S'GUAG'
p1633
tp1634
a(g1470
S'GCGC'
p1635
tp1636
a(g1490
S'GCUA'
p1637
tp1638
a(g1469
S'GCGA'
p1639
tp1640
a(g1273
S'UAAC'
p1641
tp1642
a(g1458
S'GCAA'
p1643
tp1644
a(g1453
S'GUGA'
p1645
tp1646
a(g1454
S'GUGG'
p1647
tp1648
a(g1469
S'GAGC'
p1649
tp1650
a(g1398
S'AACA'
p1651
tp1652
a(g1359
S'GAGG'
p1653
tp1654
a(g1317
S'CUUC'
p1655
tp1656
a(g1441
S'GCUC'
p1657
tp1658
a(g1422
S'AAGC'
p1659
tp1660
a(g1487
S'GAGC'
p1661
tp1662
a(g1503
S'CGGG'
p1663
tp1664
a(g1335
S'CCUG'
p1665
tp1666
a(g1486
S'GACA'
p1667
tp1668
a(g1281
S'UACC'
p1669
tp1670
a(g1492
S'GACU'
p1671
tp1672
a(g1387
S'AUAU'
p1673
tp1674
a(g1320
S'CUAA'
p1675
tp1676
a(g1359
S'CGGG'
p1677
tp1678
a(g1249
S'UUCC'
p1679
tp1680
a(g1396
S'ACAU'
p1681
tp1682
a(g1338
S'CCAC'
p1683
tp1684
a(g1300
S'UGUU'
p1685
tp1686
a(g1365
S'CGCA'
p1687
tp1688
a(g1343
S'GCGG'
p1689
tp1690
a(g1336
S'CCGU'
p1691
tp1692
a(g1364
S'CGUU'
p1693
tp1694
a(g1371
S'CGAA'
p1695
tp1696
a(g1327
S'UUGG'
p1697
tp1698
a(g1434
S'AGAU'
p1699
tp1700
a(g1476
S'GACG'
p1701
tp1702
a(g1356
S'AAGU'
p1703
tp1704
a(g1367
S'CGCU'
p1705
tp1706
a(g1432
S'AGUU'
p1707
tp1708
a(g1362
S'CGCA'
p1709
tp1710
a(g1359
S'CAGC'
p1711
tp1712
a(g1363
S'CUUG'
p1713
tp1714
a(g1398
S'UCCA'
p1715
tp1716
a(g1311
S'CGGG'
p1717
tp1718
a(g1484
S'GUGU'
p1719
tp1720
a(g1309
S'UUGC'
p1721
tp1722
a(g1491
S'GGUU'
p1723
tp1724
a(g1373
S'CCGC'
p1725
tp1726
a(g1437
S'GGGC'
p1727
tp1728
a(g1282
S'UGUA'
p1729
tp1730
a(g1395
S'ACUA'
p1731
tp1732
a(g1456
S'UCUU'
p1733
tp1734
a(g1403
S'ACGG'
p1735
tp1736
a(g1336
S'CCAA'
p1737
tp1738
a(g1317
S'CGCC'
p1739
tp1740
a(g1396
S'ACCA'
p1741
tp1742
a(g1487
S'GACG'
p1743
tp1744
a(g1384
S'AUCU'
p1745
tp1746
a(g1292
S'UGGU'
p1747
tp1748
a(g1286
S'UUCA'
p1749
tp1750
a(g1321
S'CCAC'
p1751
tp1752
a(g1499
S'GGAC'
p1753
tp1754
a(g1421
S'AAUC'
p1755
tp1756
a(g1491
S'GGUA'
p1757
tp1758
a(g1462
S'GACA'
p1759
tp1760
a(g1351
S'UACG'
p1761
tp1762
a(g1441
S'GUAC'
p1763
tp1764
a(g1351
S'CACA'
p1765
tp1766
a(g1313
S'CAUC'
p1767
tp1768
a(g1249
S'CUUC'
p1769
tp1770
a(g1256
S'CUAU'
p1771
tp1772
a(g1442
S'GCUA'
p1773
tp1774
a(g1307
S'GGAG'
p1775
tp1776
a(g1423
S'AAAG'
p1777
tp1778
a(g1298
S'AGUA'
p1779
tp1780
a(g1386
S'UUAA'
p1781
tp1782
a(g1451
S'GUCG'
p1783
tp1784
a(g1379
S'UUUG'
p1785
tp1786
a(g1381
S'CUCC'
p1787
tp1788
a(g1311
S'UAGG'
p1789
tp1790
a(g1407
S'ACUG'
p1791
tp1792
a(g1424
S'GGUU'
p1793
tp1794
a(g1394
S'ACAA'
p1795
tp1796
a(g1339
S'ACAG'
p1797
tp1798
a(g1398
S'AUCA'
p1799
tp1800
a(g1470
S'ACGA'
p1801
tp1802
a(g1367
S'GGCG'
p1803
tp1804
a(g1422
S'AUGA'
p1805
tp1806
a(g1418
S'AAUA'
p1807
tp1808
a(g1421
S'AACC'
p1809
tp1810
a(g1426
S'AGUC'
p1811
tp1812
a(g1490
S'GAUA'
p1813
tp1814
a(g1394
S'GCUA'
p1815
tp1816
a(g1484
S'GACU'
p1817
tp1818
a(g1306
S'UGCA'
p1819
tp1820
a(g1493
S'GCCC'
p1821
tp1822
a(g1441
S'UUUC'
p1823
tp1824
a(g1415
S'AACC'
p1825
tp1826
a(g1437
S'AGGA'
p1827
tp1828
a(g1423
S'ACGG'
p1829
tp1830
a(g1279
S'GCGG'
p1831
tp1832
a(g1482
S'UAAA'
p1833
tp1834
a(g1319
S'AUCG'
p1835
tp1836
a(g1446
S'AUCA'
p1837
tp1838
a(g1323
S'CGAG'
p1839
tp1840
a(g1253
S'UUAC'
p1841
tp1842
a(g1395
S'ACUC'
p1843
tp1844
a(g1349
S'CACA'
p1845
tp1846
a(g1384
S'GUAU'
p1847
tp1848
a(g1373
S'CAGC'
p1849
tp1850
a(g1293
S'GAGC'
p1851
tp1852
a(g1426
S'AGGA'
p1853
tp1854
a(g1255
S'UUAG'
p1855
tp1856
a(g1323
S'CAAG'
p1857
tp1858
a(g1493
S'GGAC'
p1859
tp1860
a(g1385
S'GUAC'
p1861
tp1862
a(g1255
S'UUCA'
p1863
tp1864
a(g1402
S'ACUA'
p1865
tp1866
a(g1357
S'CAAC'
p1867
tp1868
a(g1268
S'UCCG'
p1869
tp1870
a(g1322
S'UUAA'
p1871
tp1872
a(g1479
S'GACC'
p1873
tp1874
a(g1320
S'CGAU'
p1875
tp1876
a(g1390
S'AUGC'
p1877
tp1878
a(g1387
S'AUGG'
p1879
tp1880
a(g1477
S'CACC'
p1881
tp1882
a(g1382
S'AUCG'
p1883
tp1884
a(g1277
S'GCGC'
p1885
tp1886
a(g1331
S'CUUG'
p1887
tp1888
a(g1249
S'AUUC'
p1889
tp1890
a(g1463
S'GACG'
p1891
tp1892
a(g1366
S'CUCA'
p1893
tp1894
a(g1265
S'UCCC'
p1895
tp1896
a(g1370
S'CGAU'
p1897
tp1898
a(g1265
S'UCGC'
p1899
tp1900
a(g1406
S'ACCA'
p1901
tp1902
a(g1399
S'ACCU'
p1903
tp1904
a(g1459
S'GUUG'
p1905
tp1906
a(g1494
S'GGCG'
p1907
tp1908
a(g1413
S'GACC'
p1909
tp1910
a(g1306
S'UGAC'
p1911
tp1912
a(g1496
S'GGAC'
p1913
tp1914
a(g1316
S'CUGU'
p1915
tp1916
a(g1447
S'AUCG'
p1917
tp1918
a(g1294
S'UAGG'
p1919
tp1920
a(g1377
S'AGUC'
p1921
tp1922
a(g1280
S'UUUU'
p1923
tp1924
a(g1416
S'AAGU'
p1925
tp1926
a(g1349
S'CAGC'
p1927
tp1928
a(g1490
S'AGUA'
p1929
tp1930
a(g1411
S'AGUG'
p1931
tp1932
a(g1392
S'ACAU'
p1933
tp1934
a(g1341
S'CCCC'
p1935
tp1936
a(g1275
S'UCAA'
p1937
tp1938
a(g1334
S'UCCA'
p1939
tp1940
a(g1489
S'GGAC'
p1941
tp1942
a(g1470
S'UCGA'
p1943
tp1944
a(g1288
S'UACU'
p1945
tp1946
a(g1493
S'GUCC'
p1947
tp1948
a(g1362
S'CUUA'
p1949
tp1950
a(g1303
S'UGUG'
p1951
tp1952
a(g1287
S'UAGG'
p1953
tp1954
a(g1404
S'CCGU'
p1955
tp1956
a(g1469
S'GUGC'
p1957
tp1958
a(g1495
S'GCCG'
p1959
tp1960
a(g1284
S'UAAU'
p1961
tp1962
a(g1497
S'GGGC'
p1963
tp1964
a(g1491
S'UGUG'
p1965
tp1966
a(g1298
S'UGCA'
p1967
tp1968
a(g1345
S'CAGC'
p1969
tp1970
a(g1445
S'GCCC'
p1971
tp1972
a(g1383
S'AUCC'
p1973
tp1974
a(g1441
S'GUUA'
p1975
tp1976
a(g1288
S'UUAU'
p1977
tp1978
a(g1497
S'CGAC'
p1979
tp1980
a(g1489
S'GGGC'
p1981
tp1982
a(g1496
S'GGAA'
p1983
tp1984
a(g1442
S'GUGA'
p1985
tp1986
a(g1378
S'CUUA'
p1987
tp1988
a(g1366
S'CCCA'
p1989
tp1990
a(g1394
S'AUUA'
p1991
tp1992
a(g1485
S'CAGC'
p1993
tp1994
a(g1300
S'AGCU'
p1995
tp1996
a(g1274
S'UGAA'
p1997
tp1998
a(g1433
S'AUAC'
p1999
tp2000
a(g1257
S'UUAU'
p2001
tp2002
a(g1268
S'ACCU'
p2003
tp2004
a(g1457
S'GAUC'
p2005
tp2006
a(g1305
S'UGAU'
p2007
tp2008
a(g1279
S'UCAG'
p2009
tp2010
a(g1294
S'UAGU'
p2011
tp2012
a(g1417
S'AACC'
p2013
tp2014
a(g1459
S'GCGG'
p2015
tp2016
a(g1496
S'CGAU'
p2017
tp2018
a(g1477
S'GGCC'
p2019
tp2020
a(g1443
S'CUUG'
p2021
tp2022
a(g1342
S'ACGA'
p2023
tp2024
a(g1470
S'GAGA'
p2025
tp2026
a(g1294
S'UACA'
p2027
tp2028
a(g1389
S'AUGA'
p2029
tp2030
a(g1485
S'GGGC'
p2031
tp2032
a(g1341
S'CCGU'
p2033
tp2034
a(g1406
S'ACUA'
p2035
tp2036
a(g1290
S'UAGA'
p2037
tp2038
a(g1310
S'AGGA'
p2039
tp2040
a(g1317
S'AUCC'
p2041
tp2042
a(g1376
S'AUUG'
p2043
tp2044
a(g1502
S'GAGA'
p2045
tp2046
a(g1363
S'CGUC'
p2047
tp2048
a(g1341
S'CCGA'
p2049
tp2050
a(g1485
S'GAGA'
p2051
tp2052
a(g1418
S'AAAU'
p2053
tp2054
a(g1394
S'ACUG'
p2055
tp2056
a(g1403
S'GCAG'
p2057
tp2058
a(g1352
S'CGAU'
p2059
tp2060
a(g1412
S'AUCU'
p2061
tp2062
a(g1415
S'AAAG'
p2063
tp2064
a(g1433
S'CGAC'
p2065
tp2066
a(g1348
S'CAAU'
p2067
tp2068
a(g1494
S'GGGA'
p2069
tp2070
a(g1445
S'GUCA'
p2071
tp2072
a(g1380
S'AUCA'
p2073
tp2074
a(g1295
S'UAGU'
p2075
tp2076
a(g1358
S'CAGU'
p2077
tp2078
a(g1479
S'CACG'
p2079
tp2080
a(g1299
S'UGGG'
p2081
tp2082
a(g1275
S'UCAU'
p2083
tp2084
a(g1331
S'CCUC'
p2085
tp2086
a(g1438
S'AAGA'
p2087
tp2088
a(g1302
S'UGGA'
p2089
tp2090
a(g1415
S'AAUG'
p2091
tp2092
a(g1331
S'CCAG'
p2093
tp2094
a(g1392
S'ACUC'
p2095
tp2096
a(g1395
S'ACGG'
p2097
tp2098
a(g1439
S'AAGG'
p2099
tp2100
a(g1257
S'UUAG'
p2101
tp2102
a(g1310
S'UAGA'
p2103
tp2104
a(g1345
S'CUUC'
p2105
tp2106
a(g1423
S'AAGA'
p2107
tp2108
a(g1474
S'GAAA'
p2109
tp2110
a(g1328
S'CUUU'
p2111
tp2112
a(g1305
S'UGAG'
p2113
tp2114
a(g1502
S'GGGC'
p2115
tp2116
a(g1456
S'GAUU'
p2117
tp2118
a(g1351
S'CGCG'
p2119
tp2120
a(g1363
S'CCUG'
p2121
tp2122
a(g1302
S'UACA'
p2123
tp2124
a(g1374
S'AGGA'
p2125
tp2126
a(g1288
S'GAAU'
p2127
tp2128
a(g1468
S'GCGA'
p2129
tp2130
a(g1335
S'CCCA'
p2131
tp2132
a(g1442
S'GUAA'
p2133
tp2134
a(g1334
S'CACA'
p2135
tp2136
a(g1451
S'GCAG'
p2137
tp2138
a(g1291
S'UAAU'
p2139
tp2140
a(g1322
S'CUAU'
p2141
tp2142
a(g1358
S'UAGA'
p2143
tp2144
a(g1255
S'UGCG'
p2145
tp2146
a(g1451
S'GUAC'
p2147
tp2148
a(g1261
S'UUUC'
p2149
tp2150
a(g1495
S'GGGG'
p2151
tp2152
a(g1283
S'UGUG'
p2153
tp2154
a(g1276
S'UAGU'
p2155
tp2156
a(g1494
S'GCCA'
p2157
tp2158
a(g1360
S'CAUU'
p2159
tp2160
a(g1473
S'GAUA'
p2161
tp2162
a(g1336
S'CUAU'
p2163
tp2164
a(g1373
S'CGGU'
p2165
tp2166
a(g1379
S'GUUG'
p2167
tp2168
a(g1290
S'UGAA'
p2169
tp2170
a(g1351
S'CCCG'
p2171
tp2172
a(g1452
S'GGGU'
p2173
tp2174
a(g1327
S'CAGG'
p2175
tp2176
a(g1326
S'CCGA'
p2177
tp2178
a(g1291
S'CAAG'
p2179
tp2180
a(g1282
S'UUUA'
p2181
tp2182
a(g1451
S'GUUG'
p2183
tp2184
a(g1384
S'AUGU'
p2185
tp2186
a(g1500
S'GCGU'
p2187
tp2188
a(g1374
S'CUGA'
p2189
tp2190
a(g1258
S'UUAG'
p2191
tp2192
a(g1396
S'UCCU'
p2193
tp2194
a(g1273
S'UCAA'
p2195
tp2196
a(g1431
S'AGGG'
p2197
tp2198
a(g1368
S'AGAU'
p2199
tp2200
a(g1472
S'GAUC'
p2201
tp2202
a(g1260
S'UUGA'
p2203
tp2204
a(g1449
S'GUUC'
p2205
tp2206
a(g1374
S'CAGA'
p2207
tp2208
a(g1492
S'UGCU'
p2209
tp2210
a(g1434
S'CGAA'
p2211
tp2212
a(g1418
S'AUAA'
p2213
tp2214
a(g1487
S'GUGG'
p2215
tp2216
a(g1294
S'CAGA'
p2217
tp2218
a(g1466
S'GGAA'
p2219
tp2220
a(g1373
S'CGCC'
p2221
tp2222
a(g1258
S'UUUA'
p2223
tp2224
a(g1277
S'UCGA'
p2225
tp2226
a(g1485
S'GAGG'
p2227
tp2228
a(g1322
S'CGAA'
p2229
tp2230
a(g1460
S'GCAU'
p2231
tp2232
a(g1455
S'GUCG'
p2233
tp2234
a(g1468
S'GCAU'
p2235
tp2236
a(g1434
S'AGCA'
p2237
tp2238
a(g1428
S'GGCU'
p2239
tp2240
a(g1259
S'UUAU'
p2241
tp2242
a(g1366
S'CGGA'
p2243
tp2244
a(g1329
S'CUUC'
p2245
tp2246
a(g1486
S'GAUA'
p2247
tp2248
a(g1289
S'UUAC'
p2249
tp2250
a(g1410
S'AAUU'
p2251
tp2252
a(g1501
S'UGGC'
p2253
tp2254
a(g1337
S'CCAG'
p2255
tp2256
a(g1339
S'CCCG'
p2257
tp2258
a(g1384
S'UUAU'
p2259
tp2260
a(g1281
S'UAUU'
p2261
tp2262
a(g1488
S'GGAU'
p2263
tp2264
a(g1388
S'UUGU'
p2265
tp2266
a(g1444
S'AUCU'
p2267
tp2268
a(g1307
S'UUAG'
p2269
tp2270
a(g1355
S'CAAC'
p2271
tp2272
a(g1395
S'ACCG'
p2273
tp2274
a(g1254
S'UACA'
p2275
tp2276
a(g1251
S'UGUG'
p2277
tp2278
a(g1376
S'GUUU'
p2279
tp2280
a(g1325
S'CUGA'
p2281
tp2282
a(g1466
S'UCAA'
p2283
tp2284
a(g1260
S'AUGU'
p2285
tp2286
a(g1345
S'CAUG'
p2287
tp2288
a(g1487
S'CAGG'
p2289
tp2290
a(g1418
S'ACAA'
p2291
tp2292
a(g1284
S'GACU'
p2293
tp2294
a(g1425
S'AGUG'
p2295
tp2296
a(g1368
S'CGAC'
p2297
tp2298
a(g1424
S'AGUA'
p2299
tp2300
a(g1478
S'GAUA'
p2301
tp2302
a(g1398
S'ACUA'
p2303
tp2304
a(g1449
S'GGAC'
p2305
tp2306
a(g1425
S'ACUC'
p2307
tp2308
a(g1319
S'UUCG'
p2309
tp2310
a(g1399
S'AGCG'
p2311
tp2312
a(g1313
S'AUUC'
p2313
tp2314
a(g1419
S'GAAG'
p2315
tp2316
a(g1497
S'GUAC'
p2317
tp2318
a(g1403
S'UCAG'
p2319
tp2320
a(g1344
S'CAUA'
p2321
tp2322
a(g1418
S'AACA'
p2323
tp2324
a(g1378
S'AUCA'
p2325
tp2326
a(g1497
S'GGAG'
p2327
tp2328
a(g1463
S'GUCG'
p2329
tp2330
a(g1458
S'GCUU'
p2331
tp2332
a(g1372
S'CGAU'
p2333
tp2334
a(g1350
S'CACU'
p2335
tp2336
a(g1315
S'AUUG'
p2337
tp2338
a(g1401
S'UCAC'
p2339
tp2340
a(g1472
S'UAUU'
p2341
tp2342
a(g1297
S'AGUC'
p2343
tp2344
a(g1429
S'AGCA'
p2345
tp2346
a(g1348
S'CUCU'
p2347
tp2348
a(g1448
S'GUCU'
p2349
tp2350
a(g1450
S'GUAG'
p2351
tp2352
a(g1274
S'UCAG'
p2353
tp2354
a(g1429
S'AUCC'
p2355
tp2356
a(g1256
S'UGAU'
p2357
tp2358
a(g1361
S'CCUC'
p2359
tp2360
a(g1400
S'CCAU'
p2361
tp2362
a(g1385
S'AUGC'
p2363
tp2364
a(g1339
S'CUAG'
p2365
tp2366
a(g1353
S'CCAC'
p2367
tp2368
a(g1444
S'GUAU'
p2369
tp2370
a(g1320
S'CUGU'
p2371
tp2372
a(g1321
S'CUAU'
p2373
tp2374
a(g1463
S'GGCG'
p2375
tp2376
a(g1281
S'UAUG'
p2377
tp2378
a(g1356
S'CCGU'
p2379
tp2380
a(g1420
S'AAUU'
p2381
tp2382
a(g1294
S'UAAA'
p2383
tp2384
a(g1311
S'UGGU'
p2385
tp2386
a(g1338
S'ACAA'
p2387
tp2388
a(g1394
S'ACGA'
p2389
tp2390
a(g1253
S'UCCC'
p2391
tp2392
a(g1432
S'ACAU'
p2393
tp2394
a(g1414
S'AACG'
p2395
tp2396
a(g1503
S'UGGG'
p2397
tp2398
a(g1345
S'AAUC'
p2399
tp2400
a(g1302
S'UGAA'
p2401
tp2402
a(g1500
S'GGGG'
p2403
tp2404
a(g1260
S'UAGU'
p2405
tp2406
a(g1301
S'UGAC'
p2407
tp2408
a(g1429
S'UGCC'
p2409
tp2410
a(g1284
S'UAUU'
p2411
tp2412
a(g1448
S'GGAU'
p2413
tp2414
a(g1269
S'UCCA'
p2415
tp2416
a(g1414
S'AAGA'
p2417
tp2418
a(g1367
S'CGAG'
p2419
tp2420
a(g1347
S'GAUG'
p2421
tp2422
a(g1419
S'AAUG'
p2423
tp2424
a(g1391
S'UUGG'
p2425
tp2426
a(g1270
S'UCCC'
p2427
tp2428
a(g1348
S'CACC'
p2429
tp2430
a(g1353
S'CAAA'
p2431
tp2432
a(g1375
S'CCGG'
p2433
tp2434
a(g1342
S'CAGA'
p2435
tp2436
a(g1420
S'AAGA'
p2437
tp2438
a(g1332
S'ACCU'
p2439
tp2440
a(g1387
S'GUAG'
p2441
tp2442
a(g1372
S'CGGC'
p2443
tp2444
a(g1337
S'CUAC'
p2445
tp2446
a(g1349
S'CUCC'
p2447
tp2448
a(g1432
S'AGAG'
p2449
tp2450
a(g1417
S'AAAA'
p2451
tp2452
a(g1440
S'GGUU'
p2453
tp2454
a(g1453
S'GUCC'
p2455
tp2456
a(g1258
S'UCAA'
p2457
tp2458
a(g1348
S'GACU'
p2459
tp2460
a(g1348
S'CCCU'
p2461
tp2462
a(g1388
S'AUGA'
p2463
tp2464
a(g1413
S'AAAC'
p2465
tp2466
a(g1482
S'GAAG'
p2467
tp2468
a(g1392
S'GCUU'
p2469
tp2470
a(g1456
S'GCUA'
p2471
tp2472
a(g1335
S'ACCG'
p2473
tp2474
a(g1409
S'ACUC'
p2475
tp2476
a(g1483
S'AAAG'
p2477
tp2478
a(g1424
S'AUUU'
p2479
tp2480
a(g1342
S'UCGA'
p2481
tp2482
a(g1453
S'GUGG'
p2483
tp2484
a(g1422
S'ACGA'
p2485
tp2486
a(g1321
S'CUAG'
p2487
tp2488
a(g1464
S'GCAA'
p2489
tp2490
a(g1401
S'ACGC'
p2491
tp2492
a(g1384
S'ACAU'
p2493
tp2494
a(g1440
S'GUUC'
p2495
tp2496
a(g1470
S'GCGG'
p2497
tp2498
a(g1372
S'UGGU'
p2499
tp2500
a(g1383
S'AUAG'
p2501
tp2502
a(g1388
S'GUGU'
p2503
tp2504
a(g1252
S'UUGU'
p2505
tp2506
a(g1302
S'CGCA'
p2507
tp2508
a(g1343
S'CCGA'
p2509
tp2510
a(g1424
S'ACUU'
p2511
tp2512
a(g1410
S'GAUA'
p2513
tp2514
a(g1383
S'AUUG'
p2515
tp2516
a(g1422
S'AACA'
p2517
tp2518
a(g1349
S'CCCC'
p2519
tp2520
a(g1394
S'ACCA'
p2521
tp2522
a(g1373
S'CGGG'
p2523
tp2524
a(g1420
S'AACU'
p2525
tp2526
a(g1290
S'UAAG'
p2527
tp2528
a(g1492
S'GGCG'
p2529
tp2530
a(g1346
S'CCUA'
p2531
tp2532
a(g1465
S'GCGC'
p2533
tp2534
a(g1329
S'UCUC'
p2535
tp2536
a(g1430
S'AGAA'
p2537
tp2538
a(g1409
S'AGUC'
p2539
tp2540
a(g1324
S'CGGU'
p2541
tp2542
a(g1459
S'GGUG'
p2543
tp2544
a(g1462
S'GCCU'
p2545
tp2546
a(g1417
S'AAGC'
p2547
tp2548
a(g1304
S'UGAG'
p2549
tp2550
a(g1503
S'GUGG'
p2551
tp2552
a(g1287
S'CACG'
p2553
tp2554
a(g1406
S'CCGA'
p2555
tp2556
a(g1349
S'CACU'
p2557
tp2558
a(g1370
S'CGAC'
p2559
tp2560
a(g1306
S'UCAA'
p2561
tp2562
a(g1467
S'GCAA'
p2563
tp2564
a(g1326
S'CGGA'
p2565
tp2566
a(g1357
S'CAUC'
p2567
tp2568
a(g1446
S'CUCA'
p2569
tp2570
a(g1410
S'AAUC'
p2571
tp2572
a(g1262
S'UUGG'
p2573
tp2574
a(g1458
S'GCUG'
p2575
tp2576
a(g1407
S'ACGC'
p2577
tp2578
a(g1255
S'UUCU'
p2579
tp2580
a(g1279
S'UCUG'
p2581
tp2582
a(g1269
S'UCAC'
p2583
tp2584
a(g1366
S'CGCG'
p2585
tp2586
a(g1471
S'GCGA'
p2587
tp2588
a(g1300
S'GGCU'
p2589
tp2590
a(g1436
S'AGGA'
p2591
tp2592
a(g1424
S'AGGU'
p2593
tp2594
a(g1468
S'GCUU'
p2595
tp2596
a(g1448
S'GUGU'
p2597
tp2598
a(g1411
S'AAUC'
p2599
tp2600
a(g1310
S'UGGU'
p2601
tp2602
a(g1465
S'GCUC'
p2603
tp2604
a(g1378
S'GUUA'
p2605
tp2606
a(g1263
S'UUGA'
p2607
tp2608
a(g1499
S'GUAG'
p2609
tp2610
a(g1319
S'CUCU'
p2611
tp2612
a(g1436
S'GGGU'
p2613
tp2614
a(g1316
S'CUCA'
p2615
tp2616
a(g1272
S'CCAU'
p2617
tp2618
a(g1500
S'GGAU'
p2619
tp2620
a(g1448
S'GAAU'
p2621
tp2622
a(g1335
S'CUCG'
p2623
tp2624
a(g1293
S'UAGG'
p2625
tp2626
a(g1486
S'GAAA'
p2627
tp2628
a(g1261
S'AUGC'
p2629
tp2630
a(g1496
S'GGAG'
p2631
tp2632
a(g1321
S'CUGC'
p2633
tp2634
a(g1318
S'CACA'
p2635
tp2636
a(g1495
S'GUCG'
p2637
tp2638
a(g1314
S'CUUG'
p2639
tp2640
a(g1383
S'AUGG'
p2641
tp2642
a(g1437
S'AGGG'
p2643
tp2644
a(g1280
S'UAUG'
p2645
tp2646
a(g1399
S'GCCG'
p2647
tp2648
a(g1395
S'AAUG'
p2649
tp2650
a(g1331
S'UCUG'
p2651
tp2652
a(g1309
S'UGGU'
p2653
tp2654
a(g1357
S'CCGC'
p2655
tp2656
a(g1485
S'UAGC'
p2657
tp2658
a(g1436
S'ACGU'
p2659
tp2660
a(g1437
S'AGCC'
p2661
tp2662
a(g1438
S'AGUA'
p2663
tp2664
a(g1380
S'CUCU'
p2665
tp2666
a(g1349
S'CACG'
p2667
tp2668
a(g1321
S'CGAC'
p2669
tp2670
a(g1387
S'ACAG'
p2671
tp2672
a(g1294
S'GAGA'
p2673
tp2674
a(g1430
S'AGGA'
p2675
tp2676
a(g1487
S'GAUG'
p2677
tp2678
a(g1386
S'AGAA'
p2679
tp2680
a(g1269
S'UCCU'
p2681
tp2682
a(g1406
S'UCGA'
p2683
tp2684
a(g1430
S'CGCA'
p2685
tp2686
a(g1366
S'CGCU'
p2687
tp2688
a(g1455
S'GUUG'
p2689
tp2690
a(g1381
S'AUUC'
p2691
tp2692
a(g1365
S'UGCC'
p2693
tp2694
a(g1503
S'GCGG'
p2695
tp2696
a(g1276
S'UCAU'
p2697
tp2698
a(g1312
S'CAUU'
p2699
tp2700
a(g1334
S'CCCC'
p2701
tp2702
a(g1262
S'UAGA'
p2703
tp2704
a(g1310
S'UGGC'
p2705
tp2706
a(g1290
S'UACA'
p2707
tp2708
a(g1450
S'AUAA'
p2709
tp2710
a(g1308
S'GGGU'
p2711
tp2712
a(g1307
S'CGAG'
p2713
tp2714
a(g1287
S'UCCG'
p2715
tp2716
a(g1347
S'CGUG'
p2717
tp2718
a(g1383
S'AUCU'
p2719
tp2720
a(g1283
S'UCUG'
p2721
tp2722
a(g1487
S'GAGU'
p2723
tp2724
a(g1303
S'UGCC'
p2725
tp2726
a(g1501
S'GGGA'
p2727
tp2728
a(g1476
S'CACU'
p2729
tp2730
a(g1457
S'GCGC'
p2731
tp2732
a(g1297
S'UGUG'
p2733
tp2734
a(g1327
S'CUGA'
p2735
tp2736
a(g1326
S'CUGU'
p2737
tp2738
a(g1366
S'GGCA'
p2739
tp2740
a(g1364
S'CUCU'
p2741
tp2742
a(g1288
S'AAAU'
p2743
tp2744
a(g1333
S'UCCC'
p2745
tp2746
a(g1257
S'UUCC'
p2747
tp2748
a(g1281
S'UAAC'
p2749
tp2750
a(g1387
S'AUAA'
p2751
tp2752
a(g1378
S'AUUC'
p2753
tp2754
a(g1498
S'GUAA'
p2755
tp2756
a(g1323
S'AUAG'
p2757
tp2758
a(g1450
S'GUAU'
p2759
tp2760
a(g1254
S'UGCA'
p2761
tp2762
a(g1280
S'AAUU'
p2763
tp2764
a(g1333
S'CGCC'
p2765
tp2766
a(g1489
S'GAUC'
p2767
tp2768
a(g1354
S'CAAC'
p2769
tp2770
a(g1309
S'UGGG'
p2771
tp2772
a(g1444
S'UUCU'
p2773
tp2774
a(g1373
S'CUGC'
p2775
tp2776
a(g1299
S'UAUG'
p2777
tp2778
a(g1359
S'CAGU'
p2779
tp2780
a(g1318
S'CUAA'
p2781
tp2782
a(g1298
S'CGUA'
p2783
tp2784
a(g1359
S'CAAG'
p2785
tp2786
a(g1280
S'CAUU'
p2787
tp2788
a(g1398
S'CCCA'
p2789
tp2790
a(g1455
S'GAGG'
p2791
tp2792
a(g1341
S'CUGC'
p2793
tp2794
a(g1389
S'AGGC'
p2795
tp2796
a(g1270
S'ACCA'
p2797
tp2798
a(g1468
S'ACGU'
p2799
tp2800
a(g1359
S'CACG'
p2801
tp2802
a(g1346
S'AAUA'
p2803
tp2804
a(g1485
S'AAGC'
p2805
tp2806
a(g1271
S'GCCG'
p2807
tp2808
a(g1499
S'GGGG'
p2809
tp2810
a(g1380
S'AUCG'
p2811
tp2812
a(g1346
S'CAUC'
p2813
tp2814
a(g1319
S'CGCG'
p2815
tp2816
a(g1349
S'CGCC'
p2817
tp2818
a(g1260
S'UUUU'
p2819
tp2820
a(g1375
S'CGCG'
p2821
tp2822
a(g1290
S'UCAA'
p2823
tp2824
a(g1462
S'CCCA'
p2825
tp2826
a(g1339
S'CCUG'
p2827
tp2828
a(g1369
S'CGUC'
p2829
tp2830
a(g1467
S'GCUG'
p2831
tp2832
a(g1354
S'CCAA'
p2833
tp2834
a(g1454
S'GUCA'
p2835
tp2836
a(g1375
S'UGGG'
p2837
tp2838
a(g1312
S'CCUU'
p2839
tp2840
a(g1262
S'UUGU'
p2841
tp2842
a(g1485
S'GCGC'
p2843
tp2844
a(g1399
S'AUCG'
p2845
tp2846
a(g1380
S'AACU'
p2847
tp2848
a(g1375
S'CGUG'
p2849
tp2850
a(g1305
S'UAAC'
p2851
tp2852
a(g1453
S'GAGC'
p2853
tp2854
a(g1326
S'CUGC'
p2855
tp2856
a(g1341
S'CCAC'
p2857
tp2858
a(g1306
S'AGAA'
p2859
tp2860
a(g1418
S'AGAA'
p2861
tp2862
a(g1369
S'CGAU'
p2863
tp2864
a(g1315
S'CUUA'
p2865
tp2866
a(g1286
S'UACU'
p2867
tp2868
a(g1336
S'CCAG'
p2869
tp2870
a(g1464
S'CCAU'
p2871
tp2872
a(g1303
S'CGCG'
p2873
tp2874
a(g1465
S'GGAC'
p2875
tp2876
a(g1324
S'CCGU'
p2877
tp2878
a(g1341
S'GCGC'
p2879
tp2880
a(g1480
S'GAUU'
p2881
tp2882
a(g1313
S'CCUC'
p2883
tp2884
a(g1493
S'GGCG'
p2885
tp2886
a(g1267
S'UGUG'
p2887
tp2888
a(g1313
S'CUUU'
p2889
tp2890
a(g1377
S'AAUC'
p2891
tp2892
a(g1435
S'AGCG'
p2893
tp2894
a(g1352
S'AAAU'
p2895
tp2896
a(g1307
S'UGGG'
p2897
tp2898
a(g1495
S'GGCU'
p2899
tp2900
a(g1337
S'CCCC'
p2901
tp2902
a(g1286
S'UAUA'
p2903
tp2904
a(g1464
S'GCUU'
p2905
tp2906
a(g1262
S'UCGA'
p2907
tp2908
a(g1464
S'GCCU'
p2909
tp2910
a(g1456
S'GCAU'
p2911
tp2912
a(g1449
S'GUAU'
p2913
tp2914
a(g1390
S'ACGA'
p2915
tp2916
a(g1423
S'AGGG'
p2917
tp2918
a(g1449
S'GAAC'
p2919
tp2920
a(g1441
S'GGUC'
p2921
tp2922
a(g1426
S'ACUA'
p2923
tp2924
a(g1371
S'CGUG'
p2925
tp2926
a(g1314
S'CGUA'
p2927
tp2928
a(g1448
S'GCAU'
p2929
tp2930
a(g1365
S'GGCC'
p2931
tp2932
a(g1475
S'GAAG'
p2933
tp2934
a(g1412
S'ACCU'
p2935
tp2936
a(g1421
S'AAGG'
p2937
tp2938
a(g1479
S'GACU'
p2939
tp2940
a(g1423
S'AAUG'
p2941
tp2942
a(g1445
S'GUCG'
p2943
tp2944
a(g1425
S'AUUC'
p2945
tp2946
a(g1476
S'AACU'
p2947
tp2948
a(g1334
S'CCAA'
p2949
tp2950
a(g1318
S'CCCA'
p2951
tp2952
a(g1472
S'GAUG'
p2953
tp2954
a(g1452
S'GUUU'
p2955
tp2956
a(g1256
S'AUAU'
p2957
tp2958
a(g1433
S'ACAC'
p2959
tp2960
a(g1359
S'CUGG'
p2961
tp2962
a(g1250
S'CUUA'
p2963
tp2964
a(g1375
S'CUGG'
p2965
tp2966
a(g1344
S'CGUU'
p2967
tp2968
a(g1389
S'AUGG'
p2969
tp2970
a(g1347
S'UAUG'
p2971
tp2972
a(g1477
S'GACG'
p2973
tp2974
a(g1261
S'CUGC'
p2975
tp2976
a(g1368
S'CGUU'
p2977
tp2978
a(g1259
S'UUAA'
p2979
tp2980
a(g1491
S'GGUC'
p2981
tp2982
a(g1382
S'GUCA'
p2983
tp2984
a(g1348
S'UACU'
p2985
tp2986
a(g1462
S'GCCC'
p2987
tp2988
a(g1397
S'ACAC'
p2989
tp2990
a(g1466
S'GUAA'
p2991
tp2992
a(g1500
S'AGGU'
p2993
tp2994
a(g1387
S'UUAG'
p2995
tp2996
a(g1282
S'UAGA'
p2997
tp2998
a(g1480
S'GAGU'
p2999
tp3000
a(g1382
S'ACCA'
p3001
tp3002
a(g1313
S'CUUG'
p3003
tp3004
a(g1328
S'CAUU'
p3005
tp3006
a(g1341
S'CAGC'
p3007
tp3008
a(g1340
S'CCGG'
p3009
tp3010
a(g1409
S'UAUC'
p3011
tp3012
a(g1345
S'UAUC'
p3013
tp3014
a(g1364
S'CGAU'
p3015
tp3016
a(g1298
S'UAUA'
p3017
tp3018
a(g1489
S'GCUC'
p3019
tp3020
a(g1276
S'UUGU'
p3021
tp3022
a(g1483
S'GGAG'
p3023
tp3024
a(g1277
S'CCGC'
p3025
tp3026
a(g1426
S'UGUA'
p3027
tp3028
a(g1466
S'GCAG'
p3029
tp3030
a(g1305
S'UGUC'
p3031
tp3032
a(g1282
S'UCUA'
p3033
tp3034
a(g1442
S'GUUG'
p3035
tp3036
a(g1353
S'CUAC'
p3037
tp3038
a(g1421
S'CAGC'
p3039
tp3040
a(g1485
S'GAUC'
p3041
tp3042
a(g1395
S'GCUG'
p3043
tp3044
a(g1347
S'CAUC'
p3045
tp3046
a(g1419
S'AAAU'
p3047
tp3048
a(g1261
S'UUGU'
p3049
tp3050
a(g1344
S'CAAU'
p3051
tp3052
a(g1321
S'GUAC'
p3053
tp3054
a(g1496
S'GAAU'
p3055
tp3056
a(g1503
S'GGGC'
p3057
tp3058
a(g1299
S'UGUC'
p3059
tp3060
a(g1420
S'ACGU'
p3061
tp3062
a(g1315
S'CUAG'
p3063
tp3064
a(g1277
S'UCGG'
p3065
tp3066
a(g1433
S'AGAU'
p3067
tp3068
a(g1380
S'GUCU'
p3069
tp3070
a(g1386
S'AAAA'
p3071
tp3072
a(g1400
S'ACAC'
p3073
tp3074
a(g1308
S'UGGA'
p3075
tp3076
a(g1473
S'AAUC'
p3077
tp3078
a(g1431
S'AGCC'
p3079
tp3080
a(g1446
S'GUCC'
p3081
tp3082
a(g1250
S'UUAA'
p3083
tp3084
a(g1427
S'AGCG'
p3085
tp3086
a(g1462
S'ACCA'
p3087
tp3088
a(g1412
S'AAGU'
p3089
tp3090
a(g1482
S'GCAA'
p3091
tp3092
a(g1405
S'ACGA'
p3093
tp3094
a(g1309
S'AGGC'
p3095
tp3096
a(g1344
S'CCUU'
p3097
tp3098
a(g1360
S'CGUA'
p3099
tp3100
a(g1316
S'CGCU'
p3101
tp3102
a(g1420
S'UAGU'
p3103
tp3104
a(g1435
S'UGAG'
p3105
tp3106
a(g1377
S'GUUC'
p3107
tp3108
a(g1334
S'CGCA'
p3109
tp3110
a(g1252
S'UUCC'
p3111
tp3112
a(g1503
S'GGGA'
p3113
tp3114
a(g1385
S'AGAC'
p3115
tp3116
a(g1258
S'UGAA'
p3117
tp3118
a(g1325
S'CUGG'
p3119
tp3120
a(g1374
S'CGAA'
p3121
tp3122
a(g1421
S'AUGC'
p3123
tp3124
a(g1289
S'CAAC'
p3125
tp3126
a(g1277
S'UCCC'
p3127
tp3128
a(g1459
S'CCUG'
p3129
tp3130
a(g1328
S'CCUG'
p3131
tp3132
a(g1401
S'AUAC'
p3133
tp3134
a(g1422
S'GAGA'
p3135
tp3136
a(g1296
S'UGUC'
p3137
tp3138
a(g1368
S'GGAU'
p3139
tp3140
a(g1390
S'UUGA'
p3141
tp3142
a(g1305
S'UUAC'
p3143
tp3144
a(g1427
S'GGUG'
p3145
tp3146
a(g1410
S'AAGA'
p3147
tp3148
a(g1351
S'AACG'
p3149
tp3150
a(g1336
S'CAAU'
p3151
tp3152
a(g1369
S'GGAC'
p3153
tp3154
a(g1285
S'GACC'
p3155
tp3156
a(g1254
S'UUCG'
p3157
tp3158
a(g1261
S'UUGG'
p3159
tp3160
a(g1331
S'CCUU'
p3161
tp3162
a(g1251
S'GUUG'
p3163
tp3164
a(g1450
S'GUAC'
p3165
tp3166
a(g1358
S'AAGA'
p3167
tp3168
a(g1259
S'UUUG'
p3169
tp3170
a(g1503
S'GGGU'
p3171
tp3172
a(g1297
S'UGAC'
p3173
tp3174
a(g1409
S'AAUG'
p3175
tp3176
a(g1255
S'UUGG'
p3177
tp3178
a(g1473
S'GACC'
p3179
tp3180
a(g1291
S'UUAG'
p3181
tp3182
a(g1311
S'UUGG'
p3183
tp3184
a(g1290
S'AAAA'
p3185
tp3186
a(g1380
S'AUGU'
p3187
tp3188
a(g1354
S'AAAA'
p3189
tp3190
a(g1393
S'ACGC'
p3191
tp3192
a(g1429
S'GGCC'
p3193
tp3194
a(g1346
S'UAUA'
p3195
tp3196
a(g1419
S'AAAA'
p3197
tp3198
a(g1279
S'UCGU'
p3199
tp3200
a(g1408
S'UAUU'
p3201
tp3202
a(g1484
S'GAAU'
p3203
tp3204
a(g1266
S'UCAA'
p3205
tp3206
a(g1481
S'GAGC'
p3207
tp3208
a(g1322
S'CUAC'
p3209
tp3210
a(g1342
S'GCGA'
p3211
tp3212
a(g1378
S'ACUA'
p3213
tp3214
a(g1306
S'UAAA'
p3215
tp3216
a(g1414
S'AUCA'
p3217
tp3218
a(g1273
S'CCAC'
p3219
tp3220
a(g1271
S'UCUG'
p3221
tp3222
a(g1373
S'AGGC'
p3223
tp3224
a(g1303
S'UGAG'
p3225
tp3226
a(g1446
S'GACA'
p3227
tp3228
a(g1343
S'CCGU'
p3229
tp3230
a(g1355
S'CAUG'
p3231
tp3232
a(g1266
S'UUUA'
p3233
tp3234
a(g1439
S'UGGG'
p3235
tp3236
a(g1493
S'UGCC'
p3237
tp3238
a(g1267
S'UAUG'
p3239
tp3240
a(g1490
S'GGAA'
p3241
tp3242
a(g1386
S'ACAA'
p3243
tp3244
a(g1260
S'CUGU'
p3245
tp3246
a(g1442
S'GAUA'
p3247
tp3248
a(g1336
S'CCUU'
p3249
tp3250
a(g1428
S'AGUU'
p3251
tp3252
a(g1268
S'UCAU'
p3253
tp3254
a(g1493
S'GGUC'
p3255
tp3256
a(g1406
S'AAGA'
p3257
tp3258
a(g1399
S'UCCG'
p3259
tp3260
a(g1357
S'CAGA'
p3261
tp3262
a(g1413
S'AAUC'
p3263
tp3264
a(g1467
S'CCAG'
p3265
tp3266
a(g1404
S'ACCU'
p3267
tp3268
a(g1254
S'UUCU'
p3269
tp3270
a(g1473
S'GGUC'
p3271
tp3272
a(g1330
S'CCUG'
p3273
tp3274
a(g1486
S'GAGU'
p3275
tp3276
a(g1332
S'CCUU'
p3277
tp3278
a(g1400
S'ACCU'
p3279
tp3280
a(g1422
S'AGGA'
p3281
tp3282
a(g1370
S'CGGA'
p3283
tp3284
a(g1387
S'AGAG'
p3285
tp3286
a(g1358
S'CCGA'
p3287
tp3288
a(g1455
S'AUGG'
p3289
tp3290
a(g1296
S'UGAU'
p3291
tp3292
a(g1498
S'GGAU'
p3293
tp3294
a(g1484
S'UAGU'
p3295
tp3296
a(g1496
S'UGAU'
p3297
tp3298
a(g1258
S'UUAU'
p3299
tp3300
a(g1483
S'GAAA'
p3301
tp3302
a(g1296
S'AGUU'
p3303
tp3304
a(g1363
S'CGCG'
p3305
tp3306
a(g1388
S'ACGU'
p3307
tp3308
a(g1315
S'GUUG'
p3309
tp3310
a(g1462
S'GUCA'
p3311
tp3312
a(g1457
S'GCUA'
p3313
tp3314
a(g1453
S'UUGC'
p3315
tp3316
a(g1253
S'UUCG'
p3317
tp3318
a(g1370
S'CAAA'
p3319
tp3320
a(g1364
S'CGCG'
p3321
tp3322
a(g1281
S'GAUC'
p3323
tp3324
a(g1313
S'GUUC'
p3325
tp3326
a(g1503
S'GGCG'
p3327
tp3328
a(g1281
S'CAUC'
p3329
tp3330
a(g1263
S'UUGU'
p3331
tp3332
a(g1401
S'ACAA'
p3333
tp3334
a(g1269
S'UGCC'
p3335
tp3336
a(g1287
S'UGCG'
p3337
tp3338
a(g1448
S'GUAA'
p3339
tp3340
a(g1365
S'CCCC'
p3341
tp3342
a(g1337
S'CAAC'
p3343
tp3344
a(g1342
S'CCGC'
p3345
tp3346
a(g1355
S'CACG'
p3347
tp3348
a(g1461
S'GGCC'
p3349
tp3350
a(g1417
S'AAUC'
p3351
tp3352
a(g1430
S'GGCA'
p3353
tp3354
a(g1267
S'UCAG'
p3355
tp3356
a(g1329
S'CCUA'
p3357
tp3358
a(g1307
S'UGAA'
p3359
tp3360
a(g1438
S'AGAA'
p3361
tp3362
a(g1365
S'CGCU'
p3363
tp3364
a(g1478
S'UACA'
p3365
tp3366
a(g1288
S'UAAG'
p3367
tp3368
a(g1471
S'GCUG'
p3369
tp3370
a(g1371
S'CGAC'
p3371
tp3372
a(g1301
S'GGCC'
p3373
tp3374
a(g1276
S'UGGU'
p3375
tp3376
a(g1435
S'AGGG'
p3377
tp3378
a(g1304
S'UGAA'
p3379
tp3380
a(g1412
S'AGCU'
p3381
tp3382
a(g1298
S'GGUA'
p3383
tp3384
a(g1260
S'UUGG'
p3385
tp3386
a(g1342
S'CCUA'
p3387
tp3388
a(g1404
S'ACUU'
p3389
tp3390
a(g1256
S'UUAA'
p3391
tp3392
a(g1320
S'UUAU'
p3393
tp3394
a(g1329
S'GCUC'
p3395
tp3396
a(g1340
S'CCUU'
p3397
tp3398
a(g1481
S'GAAG'
p3399
tp3400
a(g1272
S'UCCU'
p3401
tp3402
a(g1430
S'UGCA'
p3403
tp3404
a(g1352
S'CAGU'
p3405
tp3406
a(g1449
S'GUAA'
p3407
tp3408
a(g1335
S'CCCU'
p3409
tp3410
a(g1472
S'GAAU'
p3411
tp3412
a(g1456
S'GGUU'
p3413
tp3414
a(g1299
S'UUUG'
p3415
tp3416
a(g1501
S'GGGU'
p3417
tp3418
a(g1258
S'UUAC'
p3419
tp3420
a(g1250
S'UUUU'
p3421
tp3422
a(g1381
S'AUAC'
p3423
tp3424
a(g1447
S'UUCG'
p3425
tp3426
a(g1447
S'GUCA'
p3427
tp3428
a(g1502
S'GGAA'
p3429
tp3430
a(g1481
S'CAAC'
p3431
tp3432
a(g1435
S'GGAG'
p3433
tp3434
a(g1314
S'CCUA'
p3435
tp3436
a(g1262
S'AUGA'
p3437
tp3438
a(g1396
S'GCCU'
p3439
tp3440
a(g1469
S'GCGG'
p3441
tp3442
a(g1341
S'CGGC'
p3443
tp3444
a(g1495
S'GGCA'
p3445
tp3446
a(g1291
S'UAAA'
p3447
tp3448
a(g1493
S'GGCA'
p3449
tp3450
a(g1340
S'UCGU'
p3451
tp3452
a(g1405
S'GCGC'
p3453
tp3454
a(g1267
S'UCUC'
p3455
tp3456
a(g1257
S'UUGC'
p3457
tp3458
a(g1469
S'GCCC'
p3459
tp3460
a(g1396
S'AACU'
p3461
tp3462
a(g1496
S'GGGU'
p3463
tp3464
a(g1352
S'CAUU'
p3465
tp3466
a(g1320
S'CUAC'
p3467
tp3468
a(g1299
S'CGUG'
p3469
tp3470
a(g1272
S'UUAU'
p3471
tp3472
a(g1419
S'UAAG'
p3473
tp3474
a(g1444
S'GGCU'
p3475
tp3476
a(g1330
S'CAUA'
p3477
tp3478
a(g1404
S'AGGU'
p3479
tp3480
a(g1365
S'CGCG'
p3481
tp3482
a(g1414
S'GACA'
p3483
tp3484
a(g1355
S'AAAG'
p3485
tp3486
a(g1421
S'AAGA'
p3487
tp3488
a(g1365
S'CACC'
p3489
tp3490
a(g1476
S'GACA'
p3491
tp3492
a(g1332
S'CUCU'
p3493
tp3494
a(g1385
S'AUCC'
p3495
tp3496
a(g1359
S'CAGA'
p3497
tp3498
a(g1270
S'UCGA'
p3499
tp3500
a(g1249
S'UUUA'
p3501
tp3502
a(g1461
S'UCCC'
p3503
tp3504
a(g1349
S'UACC'
p3505
tp3506
a(g1478
S'GACU'
p3507
tp3508
a(g1271
S'UCCA'
p3509
tp3510
a(g1481
S'AAAC'
p3511
tp3512
a(g1276
S'UCUU'
p3513
tp3514
a(g1393
S'AGUC'
p3515
tp3516
a(g1333
S'ACCC'
p3517
tp3518
a(g1431
S'ACCG'
p3519
tp3520
a(g1250
S'UUUC'
p3521
tp3522
a(g1416
S'AAUU'
p3523
tp3524
a(g1349
S'CAUC'
p3525
tp3526
a(g1273
S'GCAC'
p3527
tp3528
a(g1369
S'CGAG'
p3529
tp3530
a(g1500
S'GGGC'
p3531
tp3532
a(g1353
S'GAAC'
p3533
tp3534
a(g1312
S'CUGU'
p3535
tp3536
a(g1451
S'CUAG'
p3537
tp3538
a(g1431
S'CGCG'
p3539
tp3540
a(g1275
S'UGAG'
p3541
tp3542
a(g1406
S'ACAA'
p3543
tp3544
a(g1414
S'AAUA'
p3545
tp3546
a(g1414
S'AGCA'
p3547
tp3548
a(g1267
S'UCUU'
p3549
tp3550
a(g1387
S'CUAG'
p3551
tp3552
a(g1404
S'ACGA'
p3553
tp3554
a(g1429
S'ACCC'
p3555
tp3556
a(g1282
S'UAUU'
p3557
tp3558
a(g1345
S'GAUC'
p3559
tp3560
a(g1289
S'UAAA'
p3561
tp3562
a(g1374
S'CGGG'
p3563
tp3564
a(g1372
S'GGGU'
p3565
tp3566
a(g1307
S'UAAG'
p3567
tp3568
a(g1293
S'UAAC'
p3569
tp3570
a(g1333
S'GCCC'
p3571
tp3572
a(g1478
S'GGCA'
p3573
tp3574
a(g1248
S'UCUU'
p3575
tp3576
a(g1310
S'UGAA'
p3577
tp3578
a(g1389
S'GUGC'
p3579
tp3580
a(g1490
S'GGCA'
p3581
tp3582
a(g1489
S'AGUC'
p3583
tp3584
a(g1398
S'ACCG'
p3585
tp3586
a(g1486
S'GUGA'
p3587
tp3588
a(g1309
S'UGAC'
p3589
tp3590
a(g1324
S'CUAU'
p3591
tp3592
a(g1263
S'GUGG'
p3593
tp3594
a(g1373
S'CGAC'
p3595
tp3596
a(g1465
S'GCAU'
p3597
tp3598
a(g1428
S'AGGU'
p3599
tp3600
a(g1404
S'AUGU'
p3601
tp3602
a(g1366
S'CGAA'
p3603
tp3604
a(g1375
S'CGAG'
p3605
tp3606
a(g1255
S'AUCG'
p3607
tp3608
a(g1460
S'UCCU'
p3609
tp3610
a(g1440
S'UUUU'
p3611
tp3612
a(g1331
S'GCUG'
p3613
tp3614
a(g1478
S'GAAA'
p3615
tp3616
a(g1471
S'GGGG'
p3617
tp3618
a(g1482
S'AAAA'
p3619
tp3620
a(g1283
S'CAUG'
p3621
tp3622
a(g1318
S'UUCA'
p3623
tp3624
a(g1372
S'CUGU'
p3625
tp3626
a(g1441
S'GUUU'
p3627
tp3628
a(g1412
S'AACA'
p3629
tp3630
a(g1272
S'UAAU'
p3631
tp3632
a(g1377
S'AUAC'
p3633
tp3634
a(g1253
S'GUCC'
p3635
tp3636
a(g1419
S'AUAG'
p3637
tp3638
a(g1452
S'UUGU'
p3639
tp3640
a(g1371
S'CGGG'
p3641
tp3642
a(g1471
S'CCGG'
p3643
tp3644
a(g1465
S'GAAC'
p3645
tp3646
a(g1388
S'AUGG'
p3647
tp3648
a(g1361
S'CAUC'
p3649
tp3650
a(g1320
S'GUAU'
p3651
tp3652
a(g1492
S'GGCC'
p3653
tp3654
a(g1489
S'GGCC'
p3655
tp3656
a(g1461
S'GACC'
p3657
tp3658
a(g1490
S'CGUA'
p3659
tp3660
a(g1410
S'ACUA'
p3661
tp3662
a(g1278
S'UCGG'
p3663
tp3664
a(g1369
S'CCAC'
p3665
tp3666
a(g1328
S'CGUU'
p3667
tp3668
a(g1479
S'GAGG'
p3669
tp3670
a(g1397
S'ACGC'
p3671
tp3672
a(g1282
S'UAUC'
p3673
tp3674
a(g1388
S'AUAU'
p3675
tp3676
a(g1335
S'GCCG'
p3677
tp3678
a(g1437
S'AGUC'
p3679
tp3680
a(g1265
S'ACUC'
p3681
tp3682
a(g1286
S'CACA'
p3683
tp3684
a(g1369
S'CGAA'
p3685
tp3686
a(g1286
S'UACG'
p3687
tp3688
a(g1502
S'GGUA'
p3689
tp3690
a(g1257
S'GUAC'
p3691
tp3692
a(g1311
S'UGGC'
p3693
tp3694
a(g1472
S'AAUU'
p3695
tp3696
a(g1474
S'GAGA'
p3697
tp3698
a(g1354
S'CAGA'
p3699
tp3700
a(g1494
S'GGAA'
p3701
tp3702
a(g1381
S'ACCC'
p3703
tp3704
a(g1389
S'AUGU'
p3705
tp3706
a(g1280
S'UAAU'
p3707
tp3708
a(g1464
S'GCAG'
p3709
tp3710
a(g1498
S'UGAA'
p3711
tp3712
a(g1311
S'UGCG'
p3713
tp3714
a(g1436
S'AGCU'
p3715
tp3716
a(g1356
S'CAGC'
p3717
tp3718
a(g1455
S'CUGG'
p3719
tp3720
a(g1430
S'AACA'
p3721
tp3722
a(g1367
S'CGGG'
p3723
tp3724
a(g1332
S'CCCG'
p3725
tp3726
a(g1402
S'AGAA'
p3727
tp3728
a(g1289
S'UGAC'
p3729
tp3730
a(g1315
S'UUUG'
p3731
tp3732
a(g1394
S'CCUA'
p3733
tp3734
a(g1441
S'GUUG'
p3735
tp3736
a(g1283
S'UAAG'
p3737
tp3738
a(g1262
S'UUAA'
p3739
tp3740
a(g1395
S'CCUG'
p3741
tp3742
a(g1469
S'GGGC'
p3743
tp3744
a(g1443
S'GUUC'
p3745
tp3746
a(g1472
S'GAUA'
p3747
tp3748
a(g1384
S'AUAC'
p3749
tp3750
a(g1367
S'CUCG'
p3751
tp3752
a(g1462
S'GCGA'
p3753
tp3754
a(g1280
S'UAGU'
p3755
tp3756
a(g1256
S'GUAU'
p3757
tp3758
a(g1293
S'CAGC'
p3759
tp3760
a(g1443
S'GGUG'
p3761
tp3762
a(g1391
S'AUAG'
p3763
tp3764
a(g1450
S'GUUA'
p3765
tp3766
a(g1454
S'GUGC'
p3767
tp3768
a(g1303
S'UGCU'
p3769
tp3770
a(g1498
S'GCAA'
p3771
tp3772
a(g1416
S'GAAU'
p3773
tp3774
a(g1354
S'GAAA'
p3775
tp3776
a(g1451
S'GUAU'
p3777
tp3778
a(g1348
S'CAGU'
p3779
tp3780
a(g1467
S'GCAU'
p3781
tp3782
a(g1344
S'CUUU'
p3783
tp3784
a(g1426
S'AUUA'
p3785
tp3786
a(g1491
S'AGUG'
p3787
tp3788
a(g1256
S'UCAU'
p3789
tp3790
a(g1434
S'AAAA'
p3791
tp3792
a(g1467
S'GUAG'
p3793
tp3794
a(g1287
S'UACC'
p3795
tp3796
a(g1353
S'CAGC'
p3797
tp3798
a(g1392
S'ACCU'
p3799
tp3800
a(g1450
S'GUGA'
p3801
tp3802
a(g1419
S'AGAG'
p3803
tp3804
a(g1284
S'AACU'
p3805
tp3806
a(g1387
S'AUCG'
p3807
tp3808
a(g1322
S'CUCA'
p3809
tp3810
a(g1371
S'UGAG'
p3811
tp3812
a(g1391
S'AUGC'
p3813
tp3814
a(g1474
S'GUUA'
p3815
tp3816
a(g1363
S'CGUA'
p3817
tp3818
a(g1341
S'CCGG'
p3819
tp3820
a(g1340
S'CCGA'
p3821
tp3822
a(g1448
S'AUAU'
p3823
tp3824
a(g1440
S'CUUU'
p3825
tp3826
a(g1266
S'UCUG'
p3827
tp3828
a(g1278
S'UGGA'
p3829
tp3830
a(g1452
S'GUGC'
p3831
tp3832
a(g1469
S'UCGC'
p3833
tp3834
a(g1474
S'GAUU'
p3835
tp3836
a(g1295
S'UACG'
p3837
tp3838
a(g1379
S'AUGG'
p3839
tp3840
a(g1340
S'CCCU'
p3841
tp3842
a(g1276
S'CCGU'
p3843
tp3844
a(g1368
S'CGGU'
p3845
tp3846
a(g1389
S'UUGC'
p3847
tp3848
a(g1263
S'CUGG'
p3849
tp3850
a(g1273
S'UCAU'
p3851
tp3852
a(g1495
S'AGCG'
p3853
tp3854
a(g1357
S'CGGC'
p3855
tp3856
a(g1353
S'UAAC'
p3857
tp3858
a(g1266
S'UGUA'
p3859
tp3860
a(g1310
S'CGGA'
p3861
tp3862
a(g1350
S'GACA'
p3863
tp3864
a(g1270
S'UACA'
p3865
tp3866
a(g1393
S'ACUU'
p3867
tp3868
a(g1379
S'AUUA'
p3869
tp3870
a(g1408
S'AUUU'
p3871
tp3872
a(g1252
S'CUCU'
p3873
tp3874
a(g1286
S'AACA'
p3875
tp3876
a(g1300
S'UCCU'
p3877
tp3878
a(g1302
S'UGCG'
p3879
tp3880
a(g1303
S'UGGG'
p3881
tp3882
a(g1276
S'UCGG'
p3883
tp3884
a(g1417
S'CAAC'
p3885
tp3886
a(g1359
S'AAGG'
p3887
tp3888
a(g1331
S'CGUG'
p3889
tp3890
a(g1385
S'UUAC'
p3891
tp3892
a(g1366
S'CACA'
p3893
tp3894
a(g1371
S'CGCG'
p3895
tp3896
a(g1477
S'GAUC'
p3897
tp3898
a(g1377
S'UUUC'
p3899
tp3900
a(g1292
S'UCGU'
p3901
tp3902
a(g1474
S'GGUA'
p3903
tp3904
a(g1380
S'ACCU'
p3905
tp3906
a(g1395
S'ACAG'
p3907
tp3908
a(g1401
S'GCAC'
p3909
tp3910
a(g1475
S'UAUG'
p3911
tp3912
a(g1461
S'GCCG'
p3913
tp3914
a(g1337
S'ACAC'
p3915
tp3916
a(g1347
S'CCUG'
p3917
tp3918
a(g1348
S'AACU'
p3919
tp3920
a(g1486
S'GAGC'
p3921
tp3922
a(g1432
S'GGAU'
p3923
tp3924
a(g1372
S'CGCU'
p3925
tp3926
a(g1265
S'UCUA'
p3927
tp3928
a(g1411
S'AAUU'
p3929
tp3930
a(g1271
S'UCAG'
p3931
tp3932
a(g1273
S'UCAG'
p3933
tp3934
a(g1421
S'UAGC'
p3935
tp3936
a(g1434
S'AGAC'
p3937
tp3938
a(g1474
S'AAUA'
p3939
tp3940
a(g1406
S'ACGC'
p3941
tp3942
a(g1421
S'GAGC'
p3943
tp3944
a(g1362
S'CGUG'
p3945
tp3946
a(g1501
S'GCGC'
p3947
tp3948
a(g1250
S'UCUA'
p3949
tp3950
a(g1274
S'UUAA'
p3951
tp3952
a(g1445
S'AUCC'
p3953
tp3954
a(g1321
S'UUAC'
p3955
tp3956
a(g1480
S'GAAC'
p3957
tp3958
a(g1322
S'CUGA'
p3959
tp3960
a(g1317
S'CACC'
p3961
tp3962
a(g1455
S'UUGG'
p3963
tp3964
a(g1495
S'GGCC'
p3965
tp3966
a(g1461
S'GUCC'
p3967
tp3968
a(g1478
S'CACA'
p3969
tp3970
a(g1451
S'GGAG'
p3971
tp3972
a(g1333
S'CCGC'
p3973
tp3974
a(g1498
S'GGGA'
p3975
tp3976
a(g1323
S'UUAG'
p3977
tp3978
a(g1293
S'AAGC'
p3979
tp3980
a(g1266
S'UCGA'
p3981
tp3982
a(g1350
S'CUCA'
p3983
tp3984
a(g1463
S'GCCA'
p3985
tp3986
a(g1483
S'GAAU'
p3987
tp3988
a(g1275
S'ACAG'
p3989
tp3990
a(g1495
S'GGAG'
p3991
tp3992
a(g1450
S'CUAA'
p3993
tp3994
a(g1475
S'GGUG'
p3995
tp3996
a(g1347
S'CUUG'
p3997
tp3998
a(g1389
S'AAGC'
p3999
tp4000
a(g1248
S'UUUC'
p4001
tp4002
a(g1422
S'AAAA'
p4003
tp4004
a(g1469
S'GCUC'
p4005
tp4006
a(g1363
S'CGAG'
p4007
tp4008
a(g1452
S'GUGG'
p4009
tp4010
a(g1438
S'AGGG'
p4011
tp4012
a(g1356
S'CAGA'
p4013
tp4014
a(g1315
S'CCUG'
p4015
tp4016
a(g1336
S'UCAU'
p4017
tp4018
a(g1355
S'CAAA'
p4019
tp4020
a(g1257
S'AUAC'
p4021
tp4022
a(g1418
S'AAAG'
p4023
tp4024
a(g1429
S'AGUC'
p4025
tp4026
a(g1286
S'UGCA'
p4027
tp4028
a(g1273
S'UUAC'
p4029
tp4030
a(g1410
S'UAUA'
p4031
tp4032
a(g1439
S'AGAG'
p4033
tp4034
a(g1314
S'CAUA'
p4035
tp4036
a(g1260
S'GUGU'
p4037
tp4038
a(g1350
S'CCCA'
p4039
tp4040
a(g1409
S'AAAC'
p4041
tp4042
a(g1329
S'CCUU'
p4043
tp4044
a(g1477
S'GCCC'
p4045
tp4046
a(g1361
S'CGUA'
p4047
tp4048
a(g1275
S'UUAG'
p4049
tp4050
a(g1354
S'CGAA'
p4051
tp4052
a(g1325
S'CUCC'
p4053
tp4054
a(g1317
S'CUCU'
p4055
tp4056
a(g1279
S'UUGG'
p4057
tp4058
a(g1433
S'AGCC'
p4059
tp4060
a(g1429
S'AGAC'
p4061
tp4062
a(g1324
S'CUGG'
p4063
tp4064
a(g1412
S'UACU'
p4065
tp4066
a(g1412
S'AACC'
p4067
tp4068
a(g1353
S'CAAU'
p4069
tp4070
a(g1294
S'UUGA'
p4071
tp4072
a(g1302
S'GGCA'
p4073
tp4074
a(g1455
S'GUGC'
p4075
tp4076
a(g1388
S'AGGU'
p4077
tp4078
a(g1473
S'CAUC'
p4079
tp4080
a(g1317
S'CUAC'
p4081
tp4082
a(g1402
S'AAAA'
p4083
tp4084
a(g1412
S'AACG'
p4085
tp4086
a(g1279
S'ACGG'
p4087
tp4088
a(g1325
S'CGGC'
p4089
tp4090
a(g1403
S'AAAG'
p4091
tp4092
a(g1399
S'ACUG'
p4093
tp4094
a(g1331
S'CCUA'
p4095
tp4096
a(g1403
S'ACAA'
p4097
tp4098
a(g1401
S'ACAU'
p4099
tp4100
a(g1323
S'CUUG'
p4101
tp4102
a(g1428
S'AGAU'
p4103
tp4104
a(g1457
S'UCUC'
p4105
tp4106
a(g1421
S'AGGC'
p4107
tp4108
a(g1280
S'UCUU'
p4109
tp4110
a(g1364
S'CGCA'
p4111
tp4112
a(g1392
S'CCUU'
p4113
tp4114
a(g1326
S'GUGA'
p4115
tp4116
a(g1417
S'AAAG'
p4117
tp4118
a(g1292
S'UAUU'
p4119
tp4120
a(g1342
S'CCCA'
p4121
tp4122
a(g1294
S'UGGA'
p4123
tp4124
a(g1444
S'GUCG'
p4125
tp4126
a(g1282
S'UACA'
p4127
tp4128
a(g1487
S'AAGG'
p4129
tp4130
a(g1333
S'CCCG'
p4131
tp4132
a(g1369
S'CGGC'
p4133
tp4134
a(g1469
S'GCGU'
p4135
tp4136
a(g1272
S'UCAC'
p4137
tp4138
a(g1393
S'ACCC'
p4139
tp4140
a(g1329
S'CCUG'
p4141
tp4142
a(g1431
S'AGCA'
p4143
tp4144
a(g1278
S'UCUA'
p4145
tp4146
a(g1426
S'AAUA'
p4147
tp4148
a(g1472
S'CAUU'
p4149
tp4150
a(g1408
S'GAUU'
p4151
tp4152
a(g1367
S'AGCG'
p4153
tp4154
a(g1316
S'GUCU'
p4155
tp4156
a(g1414
S'AAAA'
p4157
tp4158
a(g1382
S'AACA'
p4159
tp4160
a(g1374
S'CGGC'
p4161
tp4162
a(g1393
S'GCUC'
p4163
tp4164
a(g1492
S'GGCA'
p4165
tp4166
a(g1481
S'GCAC'
p4167
tp4168
a(g1378
S'AAUA'
p4169
tp4170
a(g1249
S'UUUU'
p4171
tp4172
a(g1335
S'UCCG'
p4173
tp4174
a(g1404
S'GCGU'
p4175
tp4176
a(g1319
S'CACG'
p4177
tp4178
a(g1427
S'AGUU'
p4179
tp4180
a(g1405
S'AAGC'
p4181
tp4182
a(g1300
S'UGGU'
p4183
tp4184
a(g1340
S'CUGU'
p4185
tp4186
a(g1270
S'UCCU'
p4187
tp4188
a(g1351
S'CAAG'
p4189
tp4190
a(g1269
S'UCUC'
p4191
tp4192
a(g1252
S'UUUU'
p4193
tp4194
a(g1268
S'UACU'
p4195
tp4196
a(g1306
S'GGAA'
p4197
tp4198
a(g1338
S'CCGA'
p4199
tp4200
a(g1488
S'GGGU'
p4201
tp4202
a(g1378
S'AUUU'
p4203
tp4204
a(g1271
S'UCCC'
p4205
tp4206
a(g1419
S'AAGG'
p4207
tp4208
a(g1433
S'AGUC'
p4209
tp4210
a(g1437
S'AAGC'
p4211
tp4212
a(g1361
S'CGAC'
p4213
tp4214
a(g1352
S'CCAU'
p4215
tp4216
a(g1475
S'GAUA'
p4217
tp4218
a(g1470
S'GCCA'
p4219
tp4220
a(g1398
S'ACCU'
p4221
tp4222
a(g1356
S'GAGU'
p4223
tp4224
a(g1425
S'CGUC'
p4225
tp4226
a(g1312
S'CUAU'
p4227
tp4228
a(g1422
S'AAGG'
p4229
tp4230
a(g1460
S'GCCC'
p4231
tp4232
a(g1459
S'GCCG'
p4233
tp4234
a(g1383
S'GUCG'
p4235
tp4236
a(g1278
S'UCCA'
p4237
tp4238
a(g1361
S'UGUC'
p4239
tp4240
a(g1266
S'ACUA'
p4241
tp4242
a(g1289
S'UAAU'
p4243
tp4244
a(g1420
S'CAGU'
p4245
tp4246
a(g1258
S'UUCA'
p4247
tp4248
a(g1383
S'UUCG'
p4249
tp4250
a(g1251
S'UUGG'
p4251
tp4252
a(g1433
S'GGAC'
p4253
tp4254
a(g1421
S'AAAC'
p4255
tp4256
a(g1376
S'AUGU'
p4257
tp4258
a(g1422
S'CAGA'
p4259
tp4260
a(g1316
S'CACU'
p4261
tp4262
a(g1374
S'GGGA'
p4263
tp4264
a(g1415
S'AACU'
p4265
tp4266
a(g1378
S'UUUA'
p4267
tp4268
a(g1497
S'GGCC'
p4269
tp4270
a(g1456
S'GUUU'
p4271
tp4272
a(g1495
S'CGCG'
p4273
tp4274
a(g1254
S'UCCA'
p4275
tp4276
a(g1473
S'UAUC'
p4277
tp4278
a(g1371
S'GGAG'
p4279
tp4280
a(g1278
S'GCGA'
p4281
tp4282
a(g1423
S'AUGG'
p4283
tp4284
a(g1423
S'AACG'
p4285
tp4286
a(g1249
S'UUUG'
p4287
tp4288
a(g1296
S'GGUU'
p4289
tp4290
a(g1286
S'UAAA'
p4291
tp4292
a(g1438
S'ACGA'
p4293
tp4294
a(g1356
S'CGGU'
p4295
tp4296
a(g1248
S'UGUU'
p4297
tp4298
a(g1325
S'CAGC'
p4299
tp4300
a(g1434
S'UGAA'
p4301
tp4302
a(g1409
S'AAUA'
p4303
tp4304
a(g1421
S'ACGC'
p4305
tp4306
a(g1413
S'CACC'
p4307
tp4308
a(g1344
S'AAUU'
p4309
tp4310
a(g1300
S'UGCA'
p4311
tp4312
a(g1256
S'UUCU'
p4313
tp4314
a(g1255
S'GUCG'
p4315
tp4316
a(g1492
S'GGAU'
p4317
tp4318
a(g1325
S'CUUC'
p4319
tp4320
a(g1274
S'UCUA'
p4321
tp4322
a(g1474
S'GACA'
p4323
tp4324
a(g1393
S'AUUC'
p4325
tp4326
a(g1297
S'UGUU'
p4327
tp4328
a(g1382
S'AUCU'
p4329
tp4330
a(g1417
S'AUAC'
p4331
tp4332
a(g1441
S'GAUC'
p4333
tp4334
a(g1411
S'AAUA'
p4335
tp4336
a(g1461
S'CCCC'
p4337
tp4338
a(g1270
S'GCCA'
p4339
tp4340
a(g1364
S'GGCU'
p4341
tp4342
a(g1401
S'AAAC'
p4343
tp4344
a(g1441
S'GUGC'
p4345
tp4346
a(g1485
S'GACC'
p4347
tp4348
a(g1469
S'CCGC'
p4349
tp4350
a(g1316
S'CUCC'
p4351
tp4352
a(g1306
S'UGGA'
p4353
tp4354
a(g1297
S'UGUA'
p4355
tp4356
a(g1327
S'CUGU'
p4357
tp4358
a(g1289
S'UAAG'
p4359
tp4360
a(g1391
S'AUGU'
p4361
tp4362
a(g1452
S'GUGA'
p4363
tp4364
a(g1426
S'AGUG'
p4365
tp4366
a(g1452
S'GAGU'
p4367
tp4368
a(g1272
S'ACAU'
p4369
tp4370
a(g1265
S'UUUC'
p4371
tp4372
a(g1309
S'UAGC'
p4373
tp4374
a(g1332
S'CGCU'
p4375
tp4376
a(g1295
S'CAGG'
p4377
tp4378
a(g1280
S'UAUA'
p4379
tp4380
a(g1260
S'UCGU'
p4381
tp4382
a(g1407
S'AAGG'
p4383
tp4384
a(g1319
S'CUCC'
p4385
tp4386
a(g1326
S'UUGA'
p4387
tp4388
a(g1454
S'CUGA'
p4389
tp4390
a(g1323
S'CUAC'
p4391
tp4392
a(g1430
S'AGCG'
p4393
tp4394
a(g1420
S'AUGU'
p4395
tp4396
a(g1338
S'CCCA'
p4397
tp4398
a(g1464
S'GCAC'
p4399
tp4400
a(g1369
S'UGAC'
p4401
tp4402
a(g1463
S'CCCG'
p4403
tp4404
a(g1330
S'CCGA'
p4405
tp4406
a(g1419
S'ACAG'
p4407
tp4408
a(g1405
S'AGGC'
p4409
tp4410
a(g1404
S'ACGC'
p4411
tp4412
a(g1357
S'UAGC'
p4413
tp4414
a(g1307
S'UGUG'
p4415
tp4416
a(g1356
S'CAUU'
p4417
tp4418
a(g1435
S'AAAG'
p4419
tp4420
a(g1296
S'UCUU'
p4421
tp4422
a(g1320
S'CUUU'
p4423
tp4424
a(g1308
S'CGGU'
p4425
tp4426
a(g1436
S'CGGU'
p4427
tp4428
a(g1344
S'CAUC'
p4429
tp4430
a(g1248
S'GUUU'
p4431
tp4432
a(g1402
S'UCAA'
p4433
tp4434
a(g1313
S'CUGC'
p4435
tp4436
a(g1439
S'AGUG'
p4437
tp4438
a(g1376
S'AGUU'
p4439
tp4440
a(g1434
S'ACAA'
p4441
tp4442
a(g1362
S'UGUA'
p4443
tp4444
a(g1409
S'AAGC'
p4445
tp4446
a(g1331
S'CAUG'
p4447
tp4448
a(g1467
S'GCGG'
p4449
tp4450
a(g1409
S'AACC'
p4451
tp4452
a(g1291
S'UCAG'
p4453
tp4454
a(g1447
S'GCCG'
p4455
tp4456
a(g1303
S'UGCA'
p4457
tp4458
a(g1310
S'UGCA'
p4459
tp4460
a(g1337
S'CCGC'
p4461
tp4462
a(g1257
S'UAAC'
p4463
tp4464
a(g1393
S'CCUC'
p4465
tp4466
a(g1357
S'GAGC'
p4467
tp4468
a(g1480
S'UAAU'
p4469
tp4470
a(g1319
S'CUUG'
p4471
tp4472
a(g1332
S'UCCU'
p4473
tp4474
a(g1426
S'AGUU'
p4475
tp4476
a(g1328
S'GCUU'
p4477
tp4478
a(g1284
S'UUCU'
p4479
tp4480
a(g1293
S'UACC'
p4481
tp4482
a(g1300
S'UUCU'
p4483
tp4484
a(g1447
S'GGCG'
p4485
tp4486
a(g1405
S'ACUC'
p4487
tp4488
a(g1496
S'GCAU'
p4489
tp4490
a(g1251
S'UUCG'
p4491
tp4492
a(g1476
S'GCCU'
p4493
tp4494
a(g1352
S'CAAG'
p4495
tp4496
a(g1299
S'GGUG'
p4497
tp4498
a(g1491
S'GGGG'
p4499
tp4500
a(g1399
S'CCCG'
p4501
tp4502
a(g1368
S'CUAU'
p4503
tp4504
a(g1483
S'CAAG'
p4505
tp4506
a(g1391
S'AAGG'
p4507
tp4508
a(g1418
S'AAAC'
p4509
tp4510
a(g1488
S'UGUU'
p4511
tp4512
a(g1325
S'UUGC'
p4513
tp4514
a(g1332
S'CCCA'
p4515
tp4516
a(g1300
S'UGAU'
p4517
tp4518
a(g1397
S'GCCC'
p4519
tp4520
a(g1468
S'UCGU'
p4521
tp4522
a(g1355
S'CAGG'
p4523
tp4524
a(g1447
S'GUUG'
p4525
tp4526
a(g1329
S'ACUC'
p4527
tp4528
a(g1336
S'CGAU'
p4529
tp4530
a(g1344
S'UAUU'
p4531
tp4532
a(g1465
S'GUAC'
p4533
tp4534
a(g1502
S'GUGA'
p4535
tp4536
a(g1415
S'AGCG'
p4537
tp4538
a(g1471
S'GCCG'
p4539
tp4540
a(g1298
S'UUUA'
p4541
tp4542
a(g1339
S'UCAG'
p4543
tp4544
a(g1425
S'UGUC'
p4545
tp4546
a(g1304
S'UAAU'
p4547
tp4548
a(g1487
S'GAGA'
p4549
tp4550
a(g1260
S'UUAU'
p4551
tp4552
a(g1471
S'GCGC'
p4553
tp4554
a(g1333
S'CCCU'
p4555
tp4556
a(g1291
S'UAUG'
p4557
tp4558
a(g1427
S'UGUG'
p4559
tp4560
a(g1431
S'AACG'
p4561
tp4562
a(g1306
S'UGAU'
p4563
tp4564
a(g1463
S'GCAG'
p4565
tp4566
a(g1335
S'CCGG'
p4567
tp4568
a(g1436
S'AGGC'
p4569
tp4570
a(g1283
S'UUUG'
p4571
tp4572
a(g1449
S'GCAC'
p4573
tp4574
a(g1458
S'GGUA'
p4575
tp4576
a(g1401
S'ACAG'
p4577
tp4578
a(g1285
S'UCCC'
p4579
tp4580
a(g1345
S'CGUC'
p4581
tp4582
a(g1250
S'UUGA'
p4583
tp4584
a(g1353
S'CACC'
p4585
tp4586
a(g1333
S'CACC'
p4587
tp4588
a(g1466
S'GCGA'
p4589
tp4590
a(g1346
S'CAGA'
p4591
tp4592
a(g1337
S'CCUC'
p4593
tp4594
a(g1341
S'UCGC'
p4595
tp4596
a(g1266
S'CCUA'
p4597
tp4598
a(g1428
S'AUCU'
p4599
tp4600
a(g1380
S'AUAU'
p4601
tp4602
a(g1257
S'UGAC'
p4603
tp4604
a(g1311
S'UGGA'
p4605
tp4606
a(g1473
S'GUUC'
p4607
tp4608
a(g1286
S'UCCA'
p4609
tp4610
a(g1370
S'AGAA'
p4611
tp4612
a(g1378
S'AUAA'
p4613
tp4614
a(g1352
S'CUAU'
p4615
tp4616
a(g1423
S'UAGG'
p4617
tp4618
a(g1359
S'UAGG'
p4619
tp4620
a(g1434
S'AGGA'
p4621
tp4622
a(g1284
S'UACG'
p4623
tp4624
a(g1438
S'AGCA'
p4625
tp4626
a(g1331
S'CCGG'
p4627
tp4628
a(g1354
S'UAAA'
p4629
tp4630
a(g1431
S'UGCG'
p4631
tp4632
a(g1390
S'CUGA'
p4633
tp4634
a(g1358
S'GAGA'
p4635
tp4636
a(g1418
S'AAGA'
p4637
tp4638
a(g1423
S'CAGG'
p4639
tp4640
a(g1270
S'UCAA'
p4641
tp4642
a(g1335
S'CGCG'
p4643
tp4644
a(g1499
S'GAAG'
p4645
tp4646
a(g1481
S'GAUC'
p4647
tp4648
a(g1383
S'CUCG'
p4649
tp4650
a(g1365
S'CGUC'
p4651
tp4652
a(g1251
S'UAUG'
p4653
tp4654
a(g1264
S'GCUU'
p4655
tp4656
a(g1290
S'UAAC'
p4657
tp4658
a(g1265
S'UAUC'
p4659
tp4660
a(g1309
S'UCGC'
p4661
tp4662
a(g1299
S'UGAG'
p4663
tp4664
a(g1296
S'UGGU'
p4665
tp4666
a(g1319
S'GUCG'
p4667
tp4668
a(g1502
S'GGGG'
p4669
tp4670
a(g1308
S'UAGU'
p4671
tp4672
a(g1431
S'AGCU'
p4673
tp4674
a(g1318
S'CUUA'
p4675
tp4676
a(g1470
S'GCGU'
p4677
tp4678
a(g1320
S'CUCU'
p4679
tp4680
a(g1303
S'AGCG'
p4681
tp4682
a(g1340
S'CCAU'
p4683
tp4684
a(g1439
S'AUGG'
p4685
tp4686
a(g1301
S'UGCA'
p4687
tp4688
a(g1373
S'CGUC'
p4689
tp4690
a(g1385
S'AUAU'
p4691
tp4692
a(g1432
S'CGAU'
p4693
tp4694
a(g1420
S'AAAU'
p4695
tp4696
a(g1326
S'CUAA'
p4697
tp4698
a(g1355
S'CAAU'
p4699
tp4700
a(g1502
S'CGGA'
p4701
tp4702
a(g1443
S'GUCG'
p4703
tp4704
a(g1376
S'AUAU'
p4705
tp4706
a(g1259
S'CUAG'
p4707
tp4708
a(g1354
S'CUAA'
p4709
tp4710
a(g1309
S'GGGC'
p4711
tp4712
a(g1338
S'GCAA'
p4713
tp4714
a(g1376
S'CUUU'
p4715
tp4716
a(g1361
S'CGUU'
p4717
tp4718
a(g1451
S'AUAG'
p4719
tp4720
a(g1300
S'UGCC'
p4721
tp4722
a(g1479
S'GCCG'
p4723
tp4724
a(g1339
S'CAAG'
p4725
tp4726
a(g1336
S'CCCU'
p4727
tp4728
a(g1417
S'GAAC'
p4729
tp4730
a(g1414
S'UACA'
p4731
tp4732
a(g1453
S'AUGC'
p4733
tp4734
a(g1347
S'CAUA'
p4735
tp4736
a(g1405
S'UCGC'
p4737
tp4738
a(g1467
S'UCAG'
p4739
tp4740
a(g1485
S'GUGC'
p4741
tp4742
a(g1475
S'GCUG'
p4743
tp4744
a(g1401
S'CCAC'
p4745
tp4746
a(g1445
S'GUGC'
p4747
tp4748
a(g1436
S'AAGU'
p4749
tp4750
a(g1305
S'GGAC'
p4751
tp4752
a(g1439
S'ACGG'
p4753
tp4754
a(g1298
S'UGGA'
p4755
tp4756
a(g1439
S'GGGG'
p4757
tp4758
a(g1424
S'UGUU'
p4759
tp4760
a(g1304
S'AGAU'
p4761
tp4762
a(g1400
S'AAAU'
p4763
tp4764
a(g1323
S'CCAG'
p4765
tp4766
a(g1376
S'ACUU'
p4767
tp4768
a(g1308
S'UGGC'
p4769
tp4770
a(g1372
S'CCGU'
p4771
tp4772
a(g1382
S'CUCA'
p4773
tp4774
a(g1377
S'AUUU'
p4775
tp4776
a(g1379
S'CUUG'
p4777
tp4778
a(g1287
S'GACG'
p4779
tp4780
a(g1472
S'GCUU'
p4781
tp4782
a(g1315
S'CAUG'
p4783
tp4784
a(g1402
S'ACCA'
p4785
tp4786
a(g1324
S'GUGU'
p4787
tp4788
a(g1434
S'AGUA'
p4789
tp4790
a(g1282
S'CAUA'
p4791
tp4792
a(g1415
S'AAGG'
p4793
tp4794
a(g1303
S'UACG'
p4795
tp4796
a(g1316
S'CUAU'
p4797
tp4798
a(g1298
S'UGUC'
p4799
tp4800
a(g1482
S'GUAA'
p4801
tp4802
a(g1252
S'GUCU'
p4803
tp4804
a(g1376
S'AUUC'
p4805
tp4806
a(g1384
S'AUAG'
p4807
tp4808
a(g1375
S'GGGG'
p4809
tp4810
a(g1314
S'GUUA'
p4811
tp4812
a(g1357
S'AAGC'
p4813
tp4814
a(g1273
S'UCGC'
p4815
tp4816
a(g1328
S'CCUA'
p4817
tp4818
a(g1416
S'AAAC'
p4819
tp4820
a(g1398
S'ACGA'
p4821
tp4822
a(g1368
S'CGAG'
p4823
tp4824
a(g1483
S'GAGG'
p4825
tp4826
a(g1361
S'CGUG'
p4827
tp4828
a(g1360
S'CCUU'
p4829
tp4830
a(g1275
S'UCCG'
p4831
tp4832
a(g1398
S'ACCC'
p4833
tp4834
a(g1297
S'UGCC'
p4835
tp4836
a(g1451
S'GUAA'
p4837
tp4838
a(g1397
S'AGCC'
p4839
tp4840
a(g1369
S'CGCC'
p4841
tp4842
a(g1346
S'CACA'
p4843
tp4844
a(g1437
S'AUGC'
p4845
tp4846
a(g1444
S'GUGU'
p4847
tp4848
a(g1292
S'UAGG'
p4849
tp4850
a(g1392
S'AGUU'
p4851
tp4852
a(g1461
S'ACCC'
p4853
tp4854
a(g1304
S'GGAU'
p4855
tp4856
a(g1344
S'CAGU'
p4857
tp4858
a(g1446
S'GUCG'
p4859
tp4860
a(g1483
S'GUAG'
p4861
tp4862
a(g1407
S'ACCG'
p4863
tp4864
a(g1455
S'GGGG'
p4865
tp4866
a(g1304
S'UGGU'
p4867
tp4868
a(g1400
S'ACGU'
p4869
tp4870
a(g1371
S'CGAU'
p4871
tp4872
a(g1304
S'UGUU'
p4873
tp4874
a(g1278
S'ACGA'
p4875
tp4876
a(g1333
S'CCCA'
p4877
tp4878
a(g1384
S'AUAA'
p4879
tp4880
a(g1266
S'UCCA'
p4881
tp4882
a(g1318
S'GUCA'
p4883
tp4884
a(g1304
S'UCAU'
p4885
tp4886
a(g1438
S'UGGA'
p4887
tp4888
a(g1317
S'GUCC'
p4889
tp4890
a(g1250
S'AUUA'
p4891
tp4892
a(g1365
S'CUCC'
p4893
tp4894
a(g1297
S'UUUC'
p4895
tp4896
a(g1289
S'UCAC'
p4897
tp4898
a(g1391
S'AUCG'
p4899
tp4900
a(g1503
S'AGGG'
p4901
tp4902
a(g1251
S'UUUA'
p4903
tp4904
a(g1442
S'GUCA'
p4905
tp4906
a(g1470
S'CCGA'
p4907
tp4908
a(g1502
S'UGGA'
p4909
tp4910
a(g1436
S'AUGU'
p4911
tp4912
a(g1306
S'CGAA'
p4913
tp4914
a(g1475
S'GAUU'
p4915
tp4916
a(g1415
S'ACCG'
p4917
tp4918
a(g1403
S'AUAG'
p4919
tp4920
a(g1411
S'GAUG'
p4921
tp4922
a(g1487
S'GCGG'
p4923
tp4924
a(g1255
S'UUUG'
p4925
tp4926
a(g1411
S'AAAG'
p4927
tp4928
a(g1381
S'GUCC'
p4929
tp4930
a(g1383
S'AACG'
p4931
tp4932
a(g1466
S'GAAA'
p4933
tp4934
a(g1274
S'UCAU'
p4935
tp4936
a(g1373
S'UGGC'
p4937
tp4938
a(g1431
S'AGAG'
p4939
tp4940
a(g1285
S'UAGC'
p4941
tp4942
a(g1252
S'UUAU'
p4943
tp4944
a(g1351
S'CAGG'
p4945
tp4946
a(g1445
S'UUCC'
p4947
tp4948
a(g1414
S'AACC'
p4949
tp4950
a(g1501
S'CGGC'
p4951
tp4952
a(g1397
S'CCCC'
p4953
tp4954
a(g1306
S'UGAG'
p4955
tp4956
a(g1407
S'ACGA'
p4957
tp4958
a(g1404
S'UCGU'
p4959
tp4960
a(g1325
S'AUGC'
p4961
tp4962
a(g1290
S'UAAU'
p4963
tp4964
a(g1264
S'CCUU'
p4965
tp4966
a(g1361
S'CUUC'
p4967
tp4968
a(g1501
S'GGAC'
p4969
tp4970
a(g1309
S'CGGC'
p4971
tp4972
a(g1318
S'CUGA'
p4973
tp4974
a(g1457
S'GGUC'
p4975
tp4976
a(g1300
S'CGCU'
p4977
tp4978
a(g1297
S'UCUC'
p4979
tp4980
a(g1315
S'CUUC'
p4981
tp4982
a(g1348
S'CACG'
p4983
tp4984
a(g1490
S'GGUG'
p4985
tp4986
a(g1472
S'GGUU'
p4987
tp4988
a(g1363
S'GGUG'
p4989
tp4990
a(g1333
S'CCAC'
p4991
tp4992
a(g1265
S'GCUC'
p4993
tp4994
a(g1395
S'AUUG'
p4995
tp4996
a(g1272
S'UGAU'
p4997
tp4998
a(g1405
S'CCGC'
p4999
tp5000
a(g1444
S'GUUU'
p5001
tp5002
a(g1293
S'UCGC'
p5003
tp5004
a(g1349
S'GACC'
p5005
tp5006
a(g1432
S'AGGU'
p5007
tp5008
a(g1260
S'UGGU'
p5009
tp5010
a(g1457
S'GCCC'
p5011
tp5012
a(g1464
S'GCGU'
p5013
tp5014
a(g1251
S'CUUG'
p5015
tp5016
a(g1379
S'AUUC'
p5017
tp5018
a(g1255
S'UCCG'
p5019
tp5020
a(g1411
S'AAGG'
p5021
tp5022
a(g1448
S'GUUU'
p5023
tp5024
a(g1344
S'GAUU'
p5025
tp5026
a(g1274
S'GCAA'
p5027
tp5028
a(g1402
S'ACAG'
p5029
tp5030
a(g1251
S'UCUG'
p5031
tp5032
a(g1274
S'UAAA'
p5033
tp5034
a(g1274
S'CCAA'
p5035
tp5036
a(g1404
S'AAGU'
p5037
tp5038
a(g1453
S'GGGC'
p5039
tp5040
a(g1415
S'CACG'
p5041
tp5042
a(g1385
S'AUAG'
p5043
tp5044
a(g1324
S'CUUU'
p5045
tp5046
a(g1278
S'UCAA'
p5047
tp5048
a(g1497
S'AGAC'
p5049
tp5050
a(g1413
S'ACCC'
p5051
tp5052
a(g1489
S'GGUA'
p5053
tp5054
a(g1447
S'GUCC'
p5055
tp5056
a(g1268
S'UUCU'
p5057
tp5058
a(g1399
S'ACAG'
p5059
tp5060
a(g1267
S'ACUG'
p5061
tp5062
a(g1431
S'AUCG'
p5063
tp5064
a(g1449
S'GUAG'
p5065
tp5066
a(g1264
S'UCUG'
p5067
tp5068
a(g1314
S'CUUU'
p5069
tp5070
a(g1285
S'UACA'
p5071
tp5072
a(g1288
S'UAAA'
p5073
tp5074
a(g1304
S'CGAU'
p5075
tp5076
a(g1395
S'UCUG'
p5077
tp5078
a(g1258
S'CUAA'
p5079
tp5080
a(g1445
S'GGCC'
p5081
tp5082
a(g1497
S'GAAC'
p5083
tp5084
a(g1259
S'UUGG'
p5085
tp5086
a(g1397
S'ACCA'
p5087
tp5088
a(g1408
S'AGUU'
p5089
tp5090
a(g1383
S'ACCG'
p5091
tp5092
a(g1295
S'UUGG'
p5093
tp5094
a(g1473
S'GAGC'
p5095
tp5096
a(g1304
S'UGAC'
p5097
tp5098
a(g1317
S'UUCC'
p5099
tp5100
a(g1347
S'CAAG'
p5101
tp5102
a(g1256
S'UUAC'
p5103
tp5104
a(g1492
S'GCCU'
p5105
tp5106
a(g1283
S'UAUA'
p5107
tp5108
a(g1440
S'GUGU'
p5109
tp5110
a(g1277
S'UGGC'
p5111
tp5112
a(g1432
S'AGCU'
p5113
tp5114
a(g1372
S'CAGU'
p5115
tp5116
a(g1316
S'CUUU'
p5117
tp5118
a(g1312
S'CUCU'
p5119
tp5120
a(g1263
S'UGGG'
p5121
tp5122
a(g1393
S'ACAC'
p5123
tp5124
a(g1269
S'UCCG'
p5125
tp5126
a(g1477
S'UACC'
p5127
tp5128
a(g1307
S'UGAC'
p5129
tp5130
a(g1482
S'GACA'
p5131
tp5132
a(g1417
S'ACAC'
p5133
tp5134
a(g1390
S'AUGG'
p5135
tp5136
a(g1484
S'GCGU'
p5137
tp5138
a(g1501
S'AGGC'
p5139
tp5140
a(g1330
S'CCAA'
p5141
tp5142
a(g1461
S'GCUC'
p5143
tp5144
a(g1368
S'CCAU'
p5145
tp5146
a(g1269
S'CCCC'
p5147
tp5148
a(g1346
S'CUUA'
p5149
tp5150
a(g1396
S'ACCC'
p5151
tp5152
a(g1454
S'GUAA'
p5153
tp5154
a(g1425
S'AAUC'
p5155
tp5156
a(g1289
S'GAAC'
p5157
tp5158
a(g1431
S'AGUG'
p5159
tp5160
a(g1267
S'UCUA'
p5161
tp5162
a(g1282
S'AAUA'
p5163
tp5164
a(g1363
S'CGGG'
p5165
tp5166
a(g1249
S'UUAC'
p5167
tp5168
a(g1452
S'GCGU'
p5169
tp5170
a(g1467
S'ACAG'
p5171
tp5172
a(g1397
S'ACCG'
p5173
tp5174
a(g1378
S'AGUA'
p5175
tp5176
a(g1400
S'ACUU'
p5177
tp5178
a(g1285
S'UGCC'
p5179
tp5180
a(g1362
S'CCUA'
p5181
tp5182
a(g1402
S'CCAA'
p5183
tp5184
a(g1449
S'CUAC'
p5185
tp5186
a(g1255
S'UACG'
p5187
tp5188
a(g1370
S'CGAG'
p5189
tp5190
a(g1492
S'GGGU'
p5191
tp5192
a(g1501
S'GAGC'
p5193
tp5194
a(g1488
S'GUUU'
p5195
tp5196
a(g1292
S'AAGU'
p5197
tp5198
a(g1263
S'UUUG'
p5199
tp5200
a(g1289
S'UACC'
p5201
tp5202
a(g1476
S'GAGU'
p5203
tp5204
a(g1417
S'AAAU'
p5205
tp5206
a(g1386
S'GUAA'
p5207
tp5208
a(g1459
S'GCUA'
p5209
tp5210
a(g1337
S'CCAU'
p5211
tp5212
a(g1389
S'CUGC'
p5213
tp5214
a(g1434
S'AUAA'
p5215
tp5216
a(g1330
S'CCCA'
p5217
tp5218
a(g1442
S'CUUA'
p5219
tp5220
a(g1306
S'UUAA'
p5221
tp5222
a(g1455
S'GUGU'
p5223
tp5224
a(g1361
S'GGUC'
p5225
tp5226
a(g1391
S'CUGG'
p5227
tp5228
a(g1446
S'GUGA'
p5229
tp5230
a(g1397
S'UCCC'
p5231
tp5232
a(g1443
S'UUUG'
p5233
tp5234
a(g1402
S'ACAU'
p5235
tp5236
a(g1297
S'CGUC'
p5237
tp5238
a(g1471
S'ACGG'
p5239
tp5240
a(g1298
S'UGAA'
p5241
tp5242
a(g1391
S'ACGG'
p5243
tp5244
a(g1481
S'GGAC'
p5245
tp5246
a(g1481
S'UAAC'
p5247
tp5248
a(g1407
S'AUGG'
p5249
tp5250
a(g1442
S'AUUA'
p5251
tp5252
a(g1360
S'UGUU'
p5253
tp5254
a(g1301
S'UUCC'
p5255
tp5256
a(g1360
S'CUUU'
p5257
tp5258
a(g1437
S'AGGU'
p5259
tp5260
a(g1442
S'UUUA'
p5261
tp5262
a(g1290
S'UAUA'
p5263
tp5264
a(g1308
S'UUGU'
p5265
tp5266
a(g1257
S'UUUC'
p5267
tp5268
a(g1248
S'CUUU'
p5269
tp5270
a(g1469
S'GCAC'
p5271
tp5272
a(g1455
S'GCGG'
p5273
tp5274
a(g1478
S'GACG'
p5275
tp5276
a(g1327
S'GUGG'
p5277
tp5278
a(g1384
S'AAAU'
p5279
tp5280
a(g1477
S'AACC'
p5281
tp5282
a(g1460
S'GCCA'
p5283
tp5284
a(g1255
S'CUCG'
p5285
tp5286
a(g1444
S'GACU'
p5287
tp5288
a(g1339
S'CCGG'
p5289
tp5290
a(g1388
S'AAGU'
p5291
tp5292
a(g1417
S'AGAC'
p5293
tp5294
a(g1363
S'CGUU'
p5295
tp5296
a(g1350
S'CAGA'
p5297
tp5298
a(g1408
S'CAUU'
p5299
tp5300
a(g1386
S'AUUA'
p5301
tp5302
a(g1360
S'GGUU'
p5303
tp5304
a(g1466
S'CCAA'
p5305
tp5306
a(g1428
S'AGCA'
p5307
tp5308
a(g1340
S'CCGC'
p5309
tp5310
a(g1451
S'UUAG'
p5311
tp5312
a(g1353
S'CAAG'
p5313
tp5314
a(g1354
S'CAAG'
p5315
tp5316
a(g1503
S'GGUG'
p5317
tp5318
a(g1352
S'CAAA'
p5319
tp5320
a(g1367
S'CGCC'
p5321
tp5322
a(g1260
S'UUCU'
p5323
tp5324
a(g1261
S'UAGC'
p5325
tp5326
a(g1314
S'AUUA'
p5327
tp5328
a(g1390
S'AUAA'
p5329
tp5330
a(g1336
S'ACAU'
p5331
tp5332
a(g1375
S'CAGG'
p5333
tp5334
a(g1480
S'GAAA'
p5335
tp5336
a(g1358
S'CGGA'
p5337
tp5338
a(g1437
S'AGAC'
p5339
tp5340
a(g1386
S'AUAU'
p5341
tp5342
a(g1415
S'UACG'
p5343
tp5344
a(g1325
S'CCGC'
p5345
tp5346
a(g1486
S'GCGA'
p5347
tp5348
a(g1258
S'GUAA'
p5349
tp5350
a(g1364
S'CCCU'
p5351
tp5352
a(g1268
S'UCCA'
p5353
tp5354
a(g1495
S'UGCG'
p5355
tp5356
a(g1368
S'CAAU'
p5357
tp5358
a(g1300
S'UACU'
p5359
tp5360
a(g1409
S'GAUC'
p5361
tp5362
a(g1346
S'CAUG'
p5363
tp5364
a(g1397
S'ACCU'
p5365
tp5366
a(g1382
S'AUCC'
p5367
tp5368
a(g1250
S'UAUA'
p5369
tp5370
a(g1491
S'GGAG'
p5371
tp5372
a(g1372
S'AGGU'
p5373
tp5374
a(g1405
S'ACGU'
p5375
tp5376
a(g1355
S'CCAG'
p5377
tp5378
a(g1400
S'AGAU'
p5379
tp5380
a(g1378
S'AUGA'
p5381
tp5382
a(g1322
S'AUAA'
p5383
tp5384
a(g1428
S'ACCU'
p5385
tp5386
a(g1423
S'AAGU'
p5387
tp5388
a(g1265
S'CCUC'
p5389
tp5390
a(g1399
S'ACGG'
p5391
tp5392
a(g1461
S'GCCA'
p5393
tp5394
a(g1494
S'AGCA'
p5395
tp5396
a(g1459
S'ACUG'
p5397
tp5398
a(g1294
S'UAGC'
p5399
tp5400
a(g1479
S'GGCG'
p5401
tp5402
a(g1425
S'AGUU'
p5403
tp5404
a(g1476
S'GAUU'
p5405
tp5406
a(g1301
S'UGCU'
p5407
tp5408
a(g1464
S'GGAU'
p5409
tp5410
a(g1339
S'CCAU'
p5411
tp5412
a(g1402
S'ACAC'
p5413
tp5414
a(g1419
S'CAAG'
p5415
tp5416
a(g1499
S'GCAG'
p5417
tp5418
a(g1355
S'GAAG'
p5419
tp5420
a(g1354
S'CAAU'
p5421
tp5422
a(g1480
S'GACU'
p5423
tp5424
a(g1403
S'ACCG'
p5425
tp5426
a(g1313
S'CUCC'
p5427
tp5428
a(g1402
S'GCAA'
p5429
tp5430
a(g1441
S'CUUC'
p5431
tp5432
a(g1249
S'UCUC'
p5433
tp5434
a(g1303
S'UCCG'
p5435
tp5436
a(g1491
S'GUUG'
p5437
tp5438
a(g1331
S'ACUG'
p5439
tp5440
a(g1262
S'UUUA'
p5441
tp5442
a(g1331
S'CCCG'
p5443
tp5444
a(g1429
S'AGCU'
p5445
tp5446
a(g1497
S'GGAA'
p5447
tp5448
a(g1380
S'UUCU'
p5449
tp5450
a(g1321
S'CUCC'
p5451
tp5452
a(g1375
S'AGGG'
p5453
tp5454
a(g1371
S'CAAG'
p5455
tp5456
a(g1283
S'UAGG'
p5457
tp5458
a(g1447
S'GUGG'
p5459
tp5460
a(g1491
S'GGCG'
p5461
tp5462
a(g1413
S'AUCC'
p5463
tp5464
a(g1337
S'UCAC'
p5465
tp5466
a(g1284
S'UACA'
p5467
tp5468
a(g1312
S'CGUU'
p5469
tp5470
a(g1327
S'CUAG'
p5471
tp5472
a(g1447
S'CUCG'
p5473
tp5474
a(g1487
S'GGGG'
p5475
tp5476
a(g1346
S'CAUU'
p5477
tp5478
a(g1347
S'CAUU'
p5479
tp5480
a(g1443
S'GUUA'
p5481
tp5482
a(g1284
S'UAGU'
p5483
tp5484
a(g1326
S'CUUA'
p5485
tp5486
a(g1390
S'AGGA'
p5487
tp5488
a(g1328
S'CCCU'
p5489
tp5490
a(g1426
S'AGAA'
p5491
tp5492
a(g1308
S'UGCU'
p5493
tp5494
a(g1422
S'AAUA'
p5495
tp5496
a(g1396
S'AGCU'
p5497
tp5498
a(g1320
S'AUAU'
p5499
tp5500
a(g1295
S'UGGG'
p5501
tp5502
a(g1379
S'AUUU'
p5503
tp5504
a(g1253
S'UUUC'
p5505
tp5506
a(g1407
S'GCGG'
p5507
tp5508
a(g1316
S'AUCU'
p5509
tp5510
a(g1325
S'GUGC'
p5511
tp5512
a(g1272
S'UCGU'
p5513
tp5514
a(g1474
S'GAUG'
p5515
tp5516
a(g1460
S'ACCU'
p5517
tp5518
a(g1488
S'GGUG'
p5519
tp5520
a(g1292
S'GAGU'
p5521
tp5522
a(g1466
S'GCCA'
p5523
tp5524
a(g1259
S'UCAG'
p5525
tp5526
a(g1301
S'UGCG'
p5527
tp5528
a(g1288
S'UGAU'
p5529
tp5530
a(g1458
S'CCUA'
p5531
tp5532
a(g1412
S'AAAU'
p5533
tp5534
a(g1274
S'ACAA'
p5535
tp5536
a(g1249
S'UGUC'
p5537
tp5538
a(g1287
S'UACA'
p5539
tp5540
a(g1445
S'CUCC'
p5541
tp5542
a(g1378
S'AUUG'
p5543
tp5544
a(g1343
S'ACGG'
p5545
tp5546
a(g1301
S'UGGC'
p5547
tp5548
a(g1386
S'AUCA'
p5549
tp5550
a(g1345
S'CAAC'
p5551
tp5552
a(g1498
S'AGAA'
p5553
tp5554
a(g1493
S'GGCU'
p5555
tp5556
a(g1389
S'ACGC'
p5557
tp5558
a(g1400
S'AUAU'
p5559
tp5560
a(g1299
S'UGUA'
p5561
tp5562
a(g1358
S'CACA'
p5563
tp5564
a(g1357
S'CAGU'
p5565
tp5566
a(g1394
S'ACUC'
p5567
tp5568
a(g1297
S'UGGC'
p5569
tp5570
a(g1412
S'GACU'
p5571
tp5572
a(g1265
S'UCUU'
p5573
tp5574
a(g1269
S'UCGC'
p5575
tp5576
a(g1350
S'CGCA'
p5577
tp5578
a(g1358
S'CAGC'
p5579
tp5580
a(g1327
S'CCGG'
p5581
tp5582
a(g1480
S'GUAU'
p5583
tp5584
a(g1326
S'CUCA'
p5585
tp5586
a(g1466
S'GCUA'
p5587
tp5588
a(g1284
S'UCCU'
p5589
tp5590
a(g1329
S'CCAC'
p5591
tp5592
a(g1442
S'GGUA'
p5593
tp5594
a(g1473
S'GCUC'
p5595
tp5596
a(g1349
S'CAAC'
p5597
tp5598
a(g1435
S'AGUG'
p5599
tp5600
a(g1392
S'AAUU'
p5601
tp5602
a(g1482
S'GAAC'
p5603
tp5604
a(g1482
S'GAAU'
p5605
tp5606
a(g1379
S'ACUG'
p5607
tp5608
a(g1435
S'CGAG'
p5609
tp5610
a(g1460
S'GCUU'
p5611
tp5612
a(g1267
S'CCUG'
p5613
tp5614
a(g1416
S'UAAU'
p5615
tp5616
a(g1392
S'ACUG'
p5617
tp5618
a(g1491
S'GCUG'
p5619
tp5620
a(g1355
S'CGAG'
p5621
tp5622
a(g1263
S'AUGG'
p5623
tp5624
a(g1441
S'GUCC'
p5625
tp5626
a(g1407
S'UCGG'
p5627
tp5628
a(g1398
S'GCCA'
p5629
tp5630
a(g1458
S'UCUA'
p5631
tp5632
a(g1377
S'AUUG'
p5633
tp5634
a(g1276
S'UCGA'
p5635
tp5636
a(g1297
S'GGUC'
p5637
tp5638
a(g1497
S'GGAU'
p5639
tp5640
a(g1446
S'GUUA'
p5641
tp5642
a(g1279
S'CCGG'
p5643
tp5644
a(g1284
S'CACU'
p5645
tp5646
a(g1425
S'GGUC'
p5647
tp5648
a(g1399
S'AACG'
p5649
tp5650
a(g1490
S'GGUU'
p5651
tp5652
a(g1396
S'ACCG'
p5653
tp5654
a(g1429
S'AGCG'
p5655
tp5656
a(g1414
S'CACA'
p5657
tp5658
a(g1277
S'UCUC'
p5659
tp5660
a(g1352
S'GAAU'
p5661
tp5662
a(g1494
S'GUCA'
p5663
tp5664
a(g1299
S'UGUU'
p5665
tp5666
a(g1253
S'UUCA'
p5667
tp5668
a(g1293
S'UGGC'
p5669
tp5670
a(g1484
S'GAGA'
p5671
tp5672
a(g1364
S'UGCU'
p5673
tp5674
a(g1433
S'AGAG'
p5675
tp5676
a(g1413
S'AGCC'
p5677
tp5678
a(g1401
S'ACCC'
p5679
tp5680
a(g1424
S'AAUU'
p5681
tp5682
a(g1463
S'GCCC'
p5683
tp5684
a(g1357
S'CAGG'
p5685
tp5686
a(g1435
S'AGAU'
p5687
tp5688
a(g1456
S'GCCU'
p5689
tp5690
a(g1323
S'CUGG'
p5691
tp5692
a(g1332
S'CCGU'
p5693
tp5694
a(g1329
S'CCCC'
p5695
tp5696
a(g1265
S'UCUG'
p5697
tp5698
a(g1454
S'AUGA'
p5699
tp5700
a(g1356
S'CACU'
p5701
tp5702
a(g1456
S'GCUC'
p5703
tp5704
a(g1311
S'UGAG'
p5705
tp5706
a(g1312
S'AUUU'
p5707
tp5708
a(g1317
S'CUCA'
p5709
tp5710
a(g1416
S'CAAU'
p5711
tp5712
a(g1383
S'AGCG'
p5713
tp5714
a(g1432
S'UGAU'
p5715
tp5716
a(g1295
S'UAUG'
p5717
tp5718
a(g1295
S'UAGC'
p5719
tp5720
a(g1358
S'CAGG'
p5721
tp5722
a(g1440
S'AUUU'
p5723
tp5724
a(g1292
S'UAGA'
p5725
tp5726
a(g1493
S'AGCC'
p5727
tp5728
a(g1281
S'UGUC'
p5729
tp5730
a(g1329
S'CAUC'
p5731
tp5732
a(g1330
S'CCUU'
p5733
tp5734
a(g1313
S'CGUC'
p5735
tp5736
a(g1337
S'GCAC'
p5737
tp5738
a(g1292
S'UACU'
p5739
tp5740
a(g1280
S'UGUU'
p5741
tp5742
a(g1384
S'AUUU'
p5743
tp5744
a(g1322
S'CCAA'
p5745
tp5746
a(g1478
S'GUCA'
p5747
tp5748
a(g1475
S'GAGG'
p5749
tp5750
a(g1308
S'AGGU'
p5751
tp5752
a(g1471
S'UCGG'
p5753
tp5754
a(g1413
S'AACA'
p5755
tp5756
a(g1432
S'AGAC'
p5757
tp5758
a(g1467
S'GCCG'
p5759
tp5760
a(g1438
S'GGGA'
p5761
tp5762
a(g1407
S'ACGU'
p5763
tp5764
a(g1249
S'GUUC'
p5765
tp5766
a(g1482
S'GGAA'
p5767
tp5768
a(g1293
S'UAUC'
p5769
tp5770
a(g1389
S'AUCC'
p5771
tp5772
a(g1465
S'ACAC'
p5773
tp5774
a(g1440
S'GUAU'
p5775
tp5776
a(g1322
S'CUAG'
p5777
tp5778
a(g1338
S'CGAA'
p5779
tp5780
a(g1426
S'GGUA'
p5781
tp5782
a(g1418
S'UAAA'
p5783
tp5784
a(g1459
S'GCUC'
p5785
tp5786
a(g1496
S'GUAU'
p5787
tp5788
a(g1375
S'CGGU'
p5789
tp5790
a(g1285
S'UAAC'
p5791
tp5792
a(g1408
S'AAUC'
p5793
tp5794
a(g1444
S'GCCU'
p5795
tp5796
a(g1322
S'CUUA'
p5797
tp5798
a(g1381
S'AUCA'
p5799
tp5800
a(g1459
S'UCUG'
p5801
tp5802
a(g1264
S'UCCU'
p5803
tp5804
a(g1272
S'UCAA'
p5805
tp5806
a(g1287
S'UAAG'
p5807
tp5808
a(g1497
S'UGAC'
p5809
tp5810
a(g1343
S'CUGG'
p5811
tp5812
a(g1326
S'CAGA'
p5813
tp5814
a(g1501
S'GGUC'
p5815
tp5816
a(g1498
S'GGCA'
p5817
tp5818
a(g1295
S'UCGG'
p5819
tp5820
a(g1254
S'UUAA'
p5821
tp5822
a(g1292
S'UAAU'
p5823
tp5824
a(g1370
S'CUAA'
p5825
tp5826
a(g1440
S'GAUU'
p5827
tp5828
a(g1324
S'CUGA'
p5829
tp5830
a(g1296
S'CGUU'
p5831
tp5832
a(g1394
S'UCUA'
p5833
tp5834
a(g1471
S'GUGG'
p5835
tp5836
a(g1347
S'AAUG'
p5837
tp5838
a(g1488
S'GCUU'
p5839
tp5840
a(g1285
S'AACC'
p5841
tp5842
a(g1460
S'GCCG'
p5843
tp5844
a(g1306
S'UGUA'
p5845
tp5846
a(g1330
S'CCUC'
p5847
tp5848
a(g1483
S'GAUG'
p5849
tp5850
a(g1248
S'UUUA'
p5851
tp5852
a(g1455
S'GUGA'
p5853
tp5854
a(g1447
S'GUAG'
p5855
tp5856
a(g1273
S'UCUC'
p5857
tp5858
a(g1312
S'UUUU'
p5859
tp5860
a(g1399
S'ACCC'
p5861
tp5862
a(g1376
S'AAUU'
p5863
tp5864
a(g1334
S'CUCA'
p5865
tp5866
a(g1264
S'UCAU'
p5867
tp5868
a(g1387
S'AUUG'
p5869
tp5870
a(g1330
S'CUUA'
p5871
tp5872
a(g1438
S'AUGA'
p5873
tp5874
a(g1272
S'UCAG'
p5875
tp5876
a(g1270
S'UUCA'
p5877
tp5878
a(g1295
S'AAGG'
p5879
tp5880
a(g1343
S'CCAG'
p5881
tp5882
a(g1279
S'UCGC'
p5883
tp5884
a(g1316
S'UUCU'
p5885
tp5886
a(g1472
S'GAGU'
p5887
tp5888
a(g1410
S'AAUG'
p5889
tp5890
a(g1463
S'GCGG'
p5891
tp5892
a(g1364
S'CGCC'
p5893
tp5894
a(g1253
S'UACC'
p5895
tp5896
a(g1428
S'AGCG'
p5897
tp5898
a(g1433
S'AAAC'
p5899
tp5900
a(g1299
S'UCUG'
p5901
tp5902
a(g1258
S'UUGA'
p5903
tp5904
a(g1444
S'GUCA'
p5905
tp5906
a(g1376
S'AUCU'
p5907
tp5908
a(g1403
S'ACUG'
p5909
tp5910
a(g1342
S'CCGG'
p5911
tp5912
a(g1345
S'CAUU'
p5913
tp5914
a(g1254
S'UUGA'
p5915
tp5916
a(g1266
S'UCUC'
p5917
tp5918
a(g1448
S'CUAU'
p5919
tp5920
a(g1312
S'CUUC'
p5921
tp5922
a(g1350
S'AACA'
p5923
tp5924
a(g1264
S'UCUA'
p5925
tp5926
a(g1278
S'CCGA'
p5927
tp5928
a(g1261
S'UUGA'
p5929
tp5930
a(g1439
S'AGCG'
p5931
tp5932
a(g1430
S'AUCA'
p5933
tp5934
a(g1267
S'UUUG'
p5935
tp5936
a(g1398
S'AGCA'
p5937
tp5938
a(g1464
S'GUAU'
p5939
tp5940
a(g1470
S'GUGA'
p5941
tp5942
a(g1397
S'ACUC'
p5943
tp5944
a(g1478
S'AACA'
p5945
tp5946
a(g1270
S'UCCG'
p5947
tp5948
a(g1445
S'GUAC'
p5949
tp5950
a(g1350
S'CACG'
p5951
tp5952
a(g1346
S'CAAA'
p5953
tp5954
a(g1479
S'AACG'
p5955
tp5956
a(g1350
S'UACA'
p5957
tp5958
a(g1435
S'ACAG'
p5959
tp5960
a(g1448
S'UUAU'
p5961
tp5962
a(g1377
S'AUGC'
p5963
tp5964
a(g1423
S'AAGC'
p5965
tp5966
a(g1457
S'GCUU'
p5967
tp5968
a(g1265
S'UGUC'
p5969
tp5970
a(g1372
S'CGGG'
p5971
tp5972
a(g1494
S'UGCA'
p5973
tp5974
a(g1457
S'ACUC'
p5975
tp5976
a(g1446
S'GUAA'
p5977
tp5978
a(g1301
S'UGUC'
p5979
tp5980
a(g1302
S'AGCA'
p5981
tp5982
a(g1256
S'UUGU'
p5983
tp5984
a(g1427
S'AGUC'
p5985
tp5986
a(g1474
S'UAUA'
p5987
tp5988
a(g1410
S'CAUA'
p5989
tp5990
a(g1438
S'CGGA'
p5991
tp5992
a(g1387
S'AAAG'
p5993
tp5994
a(g1395
S'ACUU'
p5995
tp5996
a(g1440
S'GUUG'
p5997
tp5998
a(g1318
S'AUCA'
p5999
tp6000
a(g1430
S'ACCA'
p6001
tp6002
a(g1259
S'UUCG'
p6003
tp6004
a(g1403
S'AGAG'
p6005
tp6006
a(g1443
S'GUGG'
p6007
tp6008
a(g1253
S'CUCC'
p6009
tp6010
a(g1342
S'CCGU'
p6011
tp6012
a(g1321
S'CAAC'
p6013
tp6014
a(g1462
S'GGCA'
p6015
tp6016
a(g1364
S'AGCU'
p6017
tp6018
a(g1389
S'AUAC'
p6019
tp6020
a(g1482
S'GAUA'
p6021
tp6022
a(g1399
S'ACCA'
p6023
tp6024
a(g1365
S'CGAC'
p6025
tp6026
a(g1296
S'UGUG'
p6027
tp6028
a(g1459
S'GAUG'
p6029
tp6030
a(g1471
S'GAGG'
p6031
tp6032
a(g1411
S'AUUG'
p6033
tp6034
a(g1328
S'UCUU'
p6035
tp6036
a(g1343
S'CGGG'
p6037
tp6038
a(g1368
S'CGCU'
p6039
tp6040
a(g1491
S'GAUG'
p6041
tp6042
a(g1333
S'CCUC'
p6043
tp6044
a(g1427
S'ACUG'
p6045
tp6046
a(g1323
S'GUAG'
p6047
tp6048
a(g1302
S'UGCU'
p6049
tp6050
a(g1420
S'GAGU'
p6051
tp6052
a(g1268
S'UCGU'
p6053
tp6054
a(g1393
S'ACUG'
p6055
tp6056
a(g1406
S'GCGA'
p6057
tp6058
a(g1253
S'AUCC'
p6059
tp6060
a(g1454
S'GGGA'
p6061
tp6062
a(g1264
S'ACUU'
p6063
tp6064
a(g1338
S'CUAA'
p6065
tp6066
a(g1360
S'CGGU'
p6067
tp6068
a(g1366
S'CGCC'
p6069
tp6070
a(g1294
S'AAGA'
p6071
tp6072
a(g1348
S'CGCU'
p6073
tp6074
a(g1299
S'AGUG'
p6075
tp6076
a(g1291
S'GAAG'
p6077
tp6078
a(g1351
S'CACC'
p6079
tp6080
a(g1452
S'GUAU'
p6081
tp6082
a(g1251
S'UUAG'
p6083
tp6084
a(g1361
S'CGCC'
p6085
tp6086
a(g1278
S'UCGU'
p6087
tp6088
a(g1328
S'ACUU'
p6089
tp6090
a(g1403
S'CCAG'
p6091
tp6092
a(g1277
S'ACGC'
p6093
tp6094
a(g1296
S'UGCU'
p6095
tp6096
a(g1433
S'UGAC'
p6097
tp6098
a(g1457
S'CCUC'
p6099
tp6100
a(g1271
S'UACG'
p6101
tp6102
a(g1256
S'UAAU'
p6103
tp6104
a(g1465
S'UCAC'
p6105
tp6106
a(g1413
S'UACC'
p6107
tp6108
a(g1359
S'CCGG'
p6109
tp6110
a(g1254
S'UUUA'
p6111
tp6112
a(g1455
S'GUAG'
p6113
tp6114
a(g1466
S'GCAU'
p6115
tp6116
a(g1427
S'CGUG'
p6117
tp6118
a(g1271
S'UGCG'
p6119
tp6120
a(g1468
S'GUGU'
p6121
tp6122
a(g1329
S'CCGC'
p6123
tp6124
a(g1379
S'AAUG'
p6125
tp6126
a(g1339
S'CCAA'
p6127
tp6128
a(g1328
S'CCGU'
p6129
tp6130
a(g1314
S'CUUC'
p6131
tp6132
a(g1486
S'GGGA'
p6133
tp6134
a(g1288
S'CAAU'
p6135
tp6136
a(g1487
S'GAAG'
p6137
tp6138
a(g1280
S'UAUC'
p6139
tp6140
a(g1319
S'CUCA'
p6141
tp6142
a(g1341
S'CCUC'
p6143
tp6144
a(g1355
S'UAAG'
p6145
tp6146
a(g1471
S'GCAG'
p6147
tp6148
a(g1323
S'CUAA'
p6149
tp6150
a(g1396
S'ACGU'
p6151
tp6152
a(g1283
S'UACG'
p6153
tp6154
a(g1330
S'UCUA'
p6155
tp6156
a(g1278
S'UAGA'
p6157
tp6158
a(g1500
S'UGGU'
p6159
tp6160
a(g1476
S'GGCU'
p6161
tp6162
a(g1384
S'CUAU'
p6163
tp6164
a(g1302
S'UGUA'
p6165
tp6166
a(g1469
S'ACGC'
p6167
tp6168
a(g1500
S'GGGA'
p6169
tp6170
a(g1380
S'AGCU'
p6171
tp6172
a(g1493
S'CGCC'
p6173
tp6174
a(g1476
S'UACU'
p6175
tp6176
a(g1502
S'GGCA'
p6177
tp6178
a(g1457
S'GUUC'
p6179
tp6180
a(g1327
S'CUCG'
p6181
tp6182
a(g1255
S'UUCC'
p6183
tp6184
a(g1274
S'UCAC'
p6185
tp6186
a(g1435
S'AGAA'
p6187
tp6188
a(g1429
S'AACC'
p6189
tp6190
a(g1269
S'UUCC'
p6191
tp6192
a(g1309
S'UGUC'
p6193
tp6194
a(g1405
S'ACAC'
p6195
tp6196
a(g1393
S'UCUC'
p6197
tp6198
a(g1443
S'GUUU'
p6199
tp6200
a(g1261
S'UUCC'
p6201
tp6202
a(g1323
S'CUCG'
p6203
tp6204
a(g1253
S'UUCU'
p6205
tp6206
a(g1428
S'AACU'
p6207
tp6208
a(g1310
S'UGGG'
p6209
tp6210
a(g1422
S'UAGA'
p6211
tp6212
a(g1449
S'UUAC'
p6213
tp6214
a(g1278
S'UCGC'
p6215
tp6216
a(g1452
S'GUCU'
p6217
tp6218
a(g1290
S'UUAA'
p6219
tp6220
a(g1379
S'AUCG'
p6221
tp6222
a(g1302
S'UUCA'
p6223
tp6224
a(g1382
S'AUGA'
p6225
tp6226
a(g1304
S'UUAU'
p6227
tp6228
a(g1263
S'UUCG'
p6229
tp6230
a(g1262
S'UUGC'
p6231
tp6232
a(g1472
S'GUUU'
p6233
tp6234
a(g1397
S'AUCC'
p6235
tp6236
a(g1293
S'UAGU'
p6237
tp6238
a(g1443
S'AUUG'
p6239
tp6240
a(g1466
S'GCAC'
p6241
tp6242
a(g1435
S'AUAG'
p6243
tp6244
a(g1458
S'GCCA'
p6245
tp6246
a(g1332
S'CACU'
p6247
tp6248
a(g1462
S'GCCG'
p6249
tp6250
a(g1460
S'CCCU'
p6251
tp6252
a(g1488
S'GGCU'
p6253
tp6254
a(g1379
S'AGUG'
p6255
tp6256
a(g1394
S'AGUA'
p6257
tp6258
a(g1287
S'UACU'
p6259
tp6260
a(g1275
S'UCAC'
p6261
tp6262
a(g1391
S'GUGG'
p6263
tp6264
a(g1269
S'ACCC'
p6265
tp6266
a(g1275
S'CCAG'
p6267
tp6268
a(g1413
S'AACU'
p6269
tp6270
a(g1250
S'UUCA'
p6271
tp6272
a(g1400
S'UCAU'
p6273
tp6274
a(g1412
S'AAUU'
p6275
tp6276
a(g1416
S'AACU'
p6277
tp6278
a(g1252
S'UCCU'
p6279
tp6280
a(g1400
S'ACAA'
p6281
tp6282
a(g1356
S'CAGG'
p6283
tp6284
a(g1490
S'GUUA'
p6285
tp6286
a(g1407
S'AGGG'
p6287
tp6288
a(g1367
S'CCCG'
p6289
tp6290
a(g1332
S'CCCC'
p6291
tp6292
a(g1266
S'UCUU'
p6293
tp6294
a(g1312
S'CUUG'
p6295
tp6296
a(g1429
S'AGGC'
p6297
tp6298
a(g1356
S'UAGU'
p6299
tp6300
a(g1324
S'CUCU'
p6301
tp6302
a(g1351
S'CUCG'
p6303
tp6304
a(g1481
S'GACC'
p6305
tp6306
a(g1446
S'GGCA'
p6307
tp6308
a(g1259
S'UAAG'
p6309
tp6310
a(g1429
S'CGCC'
p6311
tp6312
a(g1386
S'AUGA'
p6313
tp6314
a(g1338
S'CAAA'
p6315
tp6316
a(g1499
S'GGUG'
p6317
tp6318
a(g1483
S'GACG'
p6319
tp6320
a(g1371
S'AGAG'
p6321
tp6322
a(g1463
S'GCUG'
p6323
tp6324
a(g1375
S'CGGA'
p6325
tp6326
a(g1335
S'CACG'
p6327
tp6328
a(g1334
S'CCCG'
p6329
tp6330
a(g1328
S'CCAU'
p6331
tp6332
a(g1454
S'UUGA'
p6333
tp6334
a(g1408
S'AAUA'
p6335
tp6336
a(g1472
S'GACU'
p6337
tp6338
a(g1342
S'CCAA'
p6339
tp6340
a(g1248
S'UAUU'
p6341
tp6342
a(g1269
S'UACC'
p6343
tp6344
a(g1326
S'CUGG'
p6345
tp6346
a(g1475
S'CAUG'
p6347
tp6348
a(g1424
S'CGUU'
p6349
tp6350
a(g1370
S'CGCA'
p6351
tp6352
a(g1253
S'UGCC'
p6353
tp6354
a(g1503
S'GAGG'
p6355
tp6356
a(g1392
S'UCUU'
p6357
tp6358
a(g1336
S'CCAC'
p6359
tp6360
a(g1467
S'GGAG'
p6361
tp6362
a(g1400
S'GCAU'
p6363
tp6364
a(g1426
S'CGUA'
p6365
tp6366
a(g1385
S'AUAA'
p6367
tp6368
a(g1358
S'CAUA'
p6369
tp6370
a(g1280
S'GAUU'
p6371
tp6372
a(g1279
S'UCCG'
p6373
tp6374
a(g1291
S'UAGG'
p6375
tp6376
a(g1302
S'UCCA'
p6377
tp6378
a(g1386
S'CUAA'
p6379
tp6380
a(g1301
S'AGCC'
p6381
tp6382
a(g1408
S'AAUG'
p6383
tp6384
a(g1447
S'GACG'
p6385
tp6386
a(g1276
S'GCGU'
p6387
tp6388
a(g1457
S'GCUG'
p6389
tp6390
a(g1310
S'UGUA'
p6391
tp6392
a(g1452
S'AUGU'
p6393
tp6394
a(g1310
S'UCGA'
p6395
tp6396
a(g1369
S'CAAC'
p6397
tp6398
a(g1342
S'CGGA'
p6399
tp6400
a(g1496
S'GGUU'
p6401
tp6402
a(g1478
S'GACC'
p6403
tp6404
a(g1356
S'CUGU'
p6405
tp6406
a(g1342
S'CUGA'
p6407
tp6408
a(g1370
S'UGAA'
p6409
tp6410
a(g1383
S'AUCA'
p6411
tp6412
a(g1390
S'GUGA'
p6413
tp6414
a(g1410
S'AACA'
p6415
tp6416
a(g1490
S'UGUA'
p6417
tp6418
a(g1387
S'AUAC'
p6419
tp6420
a(g1463
S'UCCG'
p6421
tp6422
a(g1369
S'CUAC'
p6423
tp6424
a(g1362
S'CGUU'
p6425
tp6426
a(g1284
S'UGCU'
p6427
tp6428
a(g1351
S'GACG'
p6429
tp6430
a(g1344
S'CACU'
p6431
tp6432
a(g1480
S'GCAU'
p6433
tp6434
a(g1424
S'AGUG'
p6435
tp6436
a(g1251
S'UUUC'
p6437
tp6438
a(g1410
S'AAAA'
p6439
tp6440
a(g1350
S'CAUA'
p6441
tp6442
a(g1461
S'GCAC'
p6443
tp6444
a(g1490
S'GGUC'
p6445
tp6446
a(g1463
S'GCCU'
p6447
tp6448
a(g1334
S'CCCU'
p6449
tp6450
a(g1490
S'GGGA'
p6451
tp6452
a(g1364
S'CACU'
p6453
tp6454
a(g1489
S'GGUU'
p6455
tp6456
a(g1386
S'AUAG'
p6457
tp6458
a(g1257
S'UCAC'
p6459
tp6460
a(g1305
S'UGAA'
p6461
tp6462
a(g1497
S'GCAC'
p6463
tp6464
a(g1271
S'CCCG'
p6465
tp6466
a(g1310
S'GGGA'
p6467
tp6468
a(g1334
S'CCGA'
p6469
tp6470
a(g1427
S'AGGG'
p6471
tp6472
a(g1377
S'AUUA'
p6473
tp6474
a(g1467
S'GCAC'
p6475
tp6476
a(g1305
S'AGAC'
p6477
tp6478
a(g1470
S'GCUA'
p6479
tp6480
a(g1325
S'CUAC'
p6481
tp6482
a(g1335
S'CCCC'
p6483
tp6484
a(g1475
S'GAUC'
p6485
tp6486
a(g1502
S'GGGU'
p6487
tp6488
a(g1324
S'CAGU'
p6489
tp6490
a(g1475
S'GACG'
p6491
tp6492
a(g1374
S'UGGA'
p6493
tp6494
a(g1314
S'CUCA'
p6495
tp6496
a(g1307
S'AGAG'
p6497
tp6498
a(g1460
S'GUCU'
p6499
tp6500
a(g1261
S'GUGC'
p6501
tp6502
a(g1339
S'CCAC'
p6503
tp6504
a(g1258
S'AUAA'
p6505
tp6506
a(g1376
S'AUUA'
p6507
tp6508
a(g1410
S'AUUA'
p6509
tp6510
a(g1408
S'ACUU'
p6511
tp6512
a(g1281
S'UCUC'
p6513
tp6514
a(g1307
S'UCAG'
p6515
tp6516
a(g1468
S'GGGU'
p6517
tp6518
a(g1483
S'GCAG'
p6519
tp6520
a(g1362
S'CGAA'
p6521
tp6522
a(g1498
S'GGAG'
p6523
tp6524
a(g1428
S'AGCC'
p6525
tp6526
a(g1359
S'CAUG'
p6527
tp6528
a(g1496
S'GGCU'
p6529
tp6530
a(g1290
S'CAAA'
p6531
tp6532
a(g1305
S'UCAC'
p6533
tp6534
a(g1442
S'GUUC'
p6535
tp6536
a(g1317
S'CUCG'
p6537
tp6538
a(g1367
S'CACG'
p6539
tp6540
a(g1304
S'UGCU'
p6541
tp6542
a(g1437
S'UGGC'
p6543
tp6544
a(g1362
S'CGUC'
p6545
tp6546
a(g1286
S'GACA'
p6547
tp6548
a(g1321
S'AUAC'
p6549
tp6550
a(g1437
S'ACGC'
p6551
tp6552
a(g1350
S'CAAA'
p6553
tp6554
a(g1311
S'UGUG'
p6555
tp6556
a(g1252
S'UACU'
p6557
tp6558
a(g1293
S'UUGC'
p6559
tp6560
a(g1303
S'GGCG'
p6561
tp6562
a(g1273
S'UGAC'
p6563
tp6564
a(g1308
S'UGAU'
p6565
tp6566
a(g1283
S'GAUG'
p6567
tp6568
a(g1366
S'CGUA'
p6569
tp6570
a(g1465
S'GCAA'
p6571
tp6572
a(g1361
S'CGGC'
p6573
tp6574
a(g1468
S'GCGG'
p6575
tp6576
a(g1500
S'GGUU'
p6577
tp6578
a(g1271
S'UCGG'
p6579
tp6580
a(g1397
S'AACC'
p6581
tp6582
a(g1470
S'GCAA'
p6583
tp6584
a(g1416
S'AAAG'
p6585
tp6586
a(g1367
S'CGUG'
p6587
tp6588
a(g1414
S'AACU'
p6589
tp6590
a(g1458
S'GAUA'
p6591
tp6592
a(g1416
S'ACAU'
p6593
tp6594
a(g1248
S'UUUG'
p6595
tp6596
a(g1453
S'CUGC'
p6597
tp6598
a(g1458
S'GUUA'
p6599
tp6600
a(g1408
S'AAAU'
p6601
tp6602
a(g1411
S'CAUG'
p6603
tp6604
a(g1275
S'UCUG'
p6605
tp6606
a(g1391
S'AUGA'
p6607
tp6608
a(g1439
S'CGGG'
p6609
tp6610
a(g1456
S'CCUU'
p6611
tp6612
a(g1438
S'AGGC'
p6613
tp6614
a(g1415
S'AUCG'
p6615
tp6616
a(g1288
S'UCAU'
p6617
tp6618
a(g1266
S'GCUA'
p6619
tp6620
a(g1381
S'UUCC'
p6621
tp6622
a(g1252
S'UUCG'
p6623
tp6624
a(g1307
S'UGCG'
p6625
tp6626
a(g1459
S'GCAG'
p6627
tp6628
a(g1428
S'UGCU'
p6629
tp6630
a(g1446
S'UUCA'
p6631
tp6632
a(g1375
S'CGGC'
p6633
tp6634
a(g1345
S'CAUA'
p6635
tp6636
a(g1328
S'CCUC'
p6637
tp6638
a(g1332
S'GCCU'
p6639
tp6640
a(g1425
S'AGUA'
p6641
tp6642
a(g1368
S'CGAA'
p6643
tp6644
a(g1385
S'ACAC'
p6645
tp6646
a(g1416
S'AUAU'
p6647
tp6648
a(g1479
S'UACG'
p6649
tp6650
a(g1393
S'ACUA'
p6651
tp6652
a(g1409
S'AAUU'
p6653
tp6654
a(g1340
S'GCGU'
p6655
tp6656
a(g1352
S'CACU'
p6657
tp6658
a(g1440
S'GCUU'
p6659
tp6660
a(g1296
S'UUUU'
p6661
tp6662
a(g1360
S'CGUC'
p6663
tp6664
a(g1347
S'CACG'
p6665
tp6666
a(g1440
S'GUCU'
p6667
tp6668
a(g1260
S'UUGC'
p6669
tp6670
a(g1475
S'AAUG'
p6671
tp6672
a(g1254
S'UUCC'
p6673
tp6674
a(g1392
S'ACUA'
p6675
tp6676
a(g1441
S'AUUC'
p6677
tp6678
a(g1488
S'CGUU'
p6679
tp6680
a(g1322
S'GUAA'
p6681
tp6682
a(g1420
S'AAGC'
p6683
tp6684
a(g1380
S'AUUU'
p6685
tp6686
a(g1391
S'AGGG'
p6687
tp6688
a(g1405
S'ACGG'
p6689
tp6690
a(g1254
S'GUCA'
p6691
tp6692
a(g1262
S'CUGA'
p6693
tp6694
a(g1479
S'GAAG'
p6695
tp6696
a(g1277
S'UCGU'
p6697
tp6698
a(g1489
S'CGUC'
p6699
tp6700
a(g1382
S'AUAA'
p6701
tp6702
a(g1346
S'CGUA'
p6703
tp6704
a(g1468
S'GCCU'
p6705
tp6706
a(g1484
S'GGGU'
p6707
tp6708
a(g1291
S'AAAG'
p6709
tp6710
a(g1453
S'GUAC'
p6711
tp6712
a(g1270
S'CCCA'
p6713
tp6714
a(g1430
S'AGCC'
p6715
tp6716
a(g1499
S'CGAG'
p6717
tp6718
a(g1316
S'CCCU'
p6719
tp6720
a(g1256
S'UUUU'
p6721
tp6722
a(g1295
S'GAGG'
p6723
tp6724
a(g1314
S'CUAA'
p6725
tp6726
a(g1382
S'AUUA'
p6727
tp6728
a(g1288
S'UAUU'
p6729
tp6730
a(g1314
S'UUUA'
p6731
tp6732
a(g1281
S'AAUC'
p6733
tp6734
a(g1348
S'CAUU'
p6735
tp6736
a(g1432
S'AGAA'
p6737
tp6738
a(g1281
S'UUUC'
p6739
tp6740
a(g1325
S'CUGU'
p6741
tp6742
a(g1343
S'CAGG'
p6743
tp6744
a(g1463
S'ACCG'
p6745
tp6746
a(g1486
S'GAGG'
p6747
tp6748
a(g1292
S'UUGU'
p6749
tp6750
a(g1324
S'UUGU'
p6751
tp6752
a(g1302
S'UGCC'
p6753
tp6754
a(g1491
S'CGUG'
p6755
tp6756
a(g1313
S'UUUC'
p6757
tp6758
a(g1412
S'CACU'
p6759
tp6760
a(g1285
S'UACU'
p6761
tp6762
a(g1353
S'CGAC'
p6763
tp6764
a(g1435
S'AGAC'
p6765
tp6766
a(g1479
S'GAUG'
p6767
tp6768
a(g1494
S'CGCA'
p6769
tp6770
a(g1278
S'UUGA'
p6771
tp6772
a(g1360
S'CGCU'
p6773
tp6774
a(g1259
S'UGAG'
p6775
tp6776
a(g1449
S'GUCC'
p6777
tp6778
a(g1370
S'GGAA'
p6779
tp6780
a(g1499
S'AGAG'
p6781
tp6782
a(g1385
S'AAAC'
p6783
tp6784
a(g1279
S'UAGG'
p6785
tp6786
a(g1348
S'CACA'
p6787
tp6788
a(g1299
S'UGCG'
p6789
tp6790
a(g1480
S'GGAU'
p6791
tp6792
a(g1407
S'ACAG'
p6793
tp6794
a(g1250
S'GUUA'
p6795
tp6796
a(g1489
S'GUUC'
p6797
tp6798
a(g1484
S'GAUU'
p6799
tp6800
a(g1425
S'AGCC'
p6801
tp6802
a(g1275
S'UCGG'
p6803
tp6804
a(g1268
S'UGCU'
p6805
tp6806
a(g1372
S'CGGA'
p6807
tp6808
a(g1502
S'AGGA'
p6809
tp6810
a(g1421
S'AAGU'
p6811
tp6812
a(g1274
S'UCCA'
p6813
tp6814
a(g1334
S'CCUA'
p6815
tp6816
a(g1305
S'UGCC'
p6817
tp6818
a(g1273
S'UCCC'
p6819
tp6820
a(g1248
S'AUUU'
p6821
tp6822
a(g1374
S'CGUA'
p6823
tp6824
a(g1422
S'AAGU'
p6825
tp6826
a(g1480
S'CAAU'
p6827
tp6828
a(g1477
S'GAGC'
p6829
tp6830
a(g1317
S'CUGC'
p6831
tp6832
a(g1266
S'UAUA'
p6833
tp6834
a(g1381
S'AACC'
p6835
tp6836
a(g1338
S'CCAU'
p6837
tp6838
a(g1321
S'CUAA'
p6839
tp6840
a(g1267
S'GCUG'
p6841
tp6842
a(g1264
S'UGUU'
p6843
tp6844
a(g1454
S'GAGA'
p6845
tp6846
a(g1291
S'UACG'
p6847
tp6848
a(g1477
S'GACU'
p6849
tp6850
a(g1269
S'GCCC'
p6851
tp6852
a(g1254
S'CUCA'
p6853
tp6854
a(g1252
S'AUCU'
p6855
tp6856
a(g1343
S'CCGC'
p6857
tp6858
a(g1286
S'UAGA'
p6859
tp6860
a(g1318
S'CUCC'
p6861
tp6862
a(g1267
S'UCCG'
p6863
tp6864
a(g1259
S'AUAG'
p6865
tp6866
a(g1309
S'UGGA'
p6867
tp6868
a(g1392
S'ACGU'
p6869
tp6870
a(g1427
S'AUUG'
p6871
tp6872
a(g1420
S'AGGU'
p6873
tp6874
a(g1373
S'CGGA'
p6875
tp6876
a(g1285
S'UACG'
p6877
tp6878
a(g1288
S'UAAC'
p6879
tp6880
a(g1296
S'UGUA'
p6881
tp6882
a(g1259
S'GUAG'
p6883
tp6884
a(g1272
S'GCAU'
p6885
tp6886
a(g1308
S'UCGU'
p6887
tp6888
a(g1403
S'ACAU'
p6889
tp6890
a(g1374
S'CGGU'
p6891
tp6892
a(g1323
S'CUAU'
p6893
tp6894
a(g1430
S'AGCU'
p6895
tp6896
a(g1494
S'GGCC'
p6897
tp6898
a(g1418
S'GAAA'
p6899
tp6900
a(g1253
S'UUGC'
p6901
tp6902
a(g1277
S'UUGC'
p6903
tp6904
a(g1450
S'GAAA'
p6905
tp6906
a(g1288
S'UAGU'
p6907
tp6908
a(g1494
S'GGCU'
p6909
tp6910
a(g1301
S'CGCC'
p6911
tp6912
a(g1373
S'GGGC'
p6913
tp6914
a(g1494
S'GGUA'
p6915
tp6916
a(g1345
S'CCUC'
p6917
tp6918
a(g1384
S'AGAU'
p6919
tp6920
a(g1357
S'CUGC'
p6921
tp6922
a(g1415
S'GACG'
p6923
tp6924
a(g1367
S'UGCG'
p6925
tp6926
a(g1453
S'GCGC'
p6927
tp6928
a(g1404
S'ACAU'
p6929
tp6930
a(g1454
S'GUUA'
p6931
tp6932
a(g1287
S'UAUG'
p6933
tp6934
a(g1468
S'GAGU'
p6935
tp6936
a(g1458
S'GCUC'
p6937
tp6938
a(g1458
S'ACUA'
p6939
tp6940
a(g1272
S'UCUU'
p6941
tp6942
a(g1453
S'GUGU'
p6943
tp6944
a(g1436
S'AGGG'
p6945
tp6946
a(g1388
S'AUGC'
p6947
tp6948
a(g1298
S'UCUA'
p6949
tp6950
a(g1270
S'UGCA'
p6951
tp6952
a(g1285
S'UAUC'
p6953
tp6954
a(g1451
S'GUGG'
p6955
tp6956
a(g1438
S'AGGU'
p6957
tp6958
a(g1409
S'CAUC'
p6959
tp6960
a(g1476
S'GACC'
p6961
tp6962
a(g1396
S'AUCU'
p6963
tp6964
a(g1263
S'UUGC'
p6965
tp6966
a(g1314
S'CUGA'
p6967
tp6968
a(g1363
S'AGUG'
p6969
tp6970
a(g1377
S'AUCC'
p6971
tp6972
a(g1318
S'CUCG'
p6973
tp6974
a(g1479
S'GUCG'
p6975
tp6976
a(g1316
S'CUCG'
p6977
tp6978
a(g1330
S'CGUA'
p6979
tp6980
a(g1264
S'UCGU'
p6981
tp6982
a(g1293
S'UAGA'
p6983
tp6984
a(g1320
S'CUAG'
p6985
tp6986
a(g1371
S'CUAG'
p6987
tp6988
a(g1283
S'UAUU'
p6989
tp6990
a(g1372
S'CGUU'
p6991
tp6992
a(g1481
S'GAAU'
p6993
tp6994
a(g1309
S'UGCC'
p6995
tp6996
a(g1462
S'GCUA'
p6997
tp6998
a(g1274
S'UCGA'
p6999
tp7000
a(g1442
S'GUUU'
p7001
tp7002
a(g1263
S'UAGG'
p7003
tp7004
a(g1343
S'UCGG'
p7005
tp7006
a(g1350
S'CACC'
p7007
tp7008
a(g1460
S'GCGU'
p7009
tp7010
a(g1436
S'AGAU'
p7011
tp7012
a(g1453
S'GUUC'
p7013
tp7014
a(g1346
S'GAUA'
p7015
tp7016
a(g1385
S'CUAC'
p7017
tp7018
a(g1330
S'ACUA'
p7019
tp7020
a(g1419
S'AAAC'
p7021
tp7022
a(g1277
S'UAGC'
p7023
tp7024
a(g1295
S'UAAG'
p7025
tp7026
a(g1330
S'GCUA'
p7027
tp7028
a(g1271
S'UCCU'
p7029
tp7030
a(g1496
S'AGAU'
p7031
tp7032
a(g1482
S'CAAA'
p7033
tp7034
a(g1360
S'AGUU'
p7035
tp7036
a(g1285
S'UUCC'
p7037
tp7038
a(g1250
S'UUUG'
p7039
tp7040
a(g1252
S'UGCU'
p7041
tp7042
a(g1343
S'CCUG'
p7043
tp7044
a(g1492
S'AGCU'
p7045
tp7046
a(g1451
S'GAAG'
p7047
tp7048
a(g1464
S'GAAU'
p7049
tp7050
a(g1262
S'UUCA'
p7051
tp7052
a(g1287
S'UUCG'
p7053
tp7054
a(g1484
S'GAGG'
p7055
tp7056
a(g1445
S'GACC'
p7057
tp7058
a(g1471
S'GCGU'
p7059
tp7060
a(g1250
S'UGUA'
p7061
tp7062
a(g1366
S'UGCA'
p7063
tp7064
a(g1276
S'ACGU'
p7065
tp7066
a(g1500
S'GUGU'
p7067
tp7068
a(g1261
S'UCGC'
p7069
tp7070
a(g1338
S'CCAG'
p7071
tp7072
a(g1251
S'AUUG'
p7073
tp7074
a(g1318
S'CUCU'
p7075
tp7076
a(g1473
S'GAUU'
p7077
tp7078
a(g1461
S'GCCU'
p7079
tp7080
a(g1335
S'CCAG'
p7081
tp7082
a(g1273
S'ACAC'
p7083
tp7084
a(g1396
S'ACUU'
p7085
tp7086
a(g1327
S'CUGC'
p7087
tp7088
a(g1261
S'UGGC'
p7089
tp7090
a(g1388
S'AUCU'
p7091
tp7092
a(g1427
S'AGUA'
p7093
tp7094
a(g1411
S'UAUG'
p7095
tp7096
a(g1248
S'UUGU'
p7097
tp7098
a(g1430
S'AGUA'
p7099
tp7100
a(g1305
S'UGGC'
p7101
tp7102
a(g1339
S'CGAG'
p7103
tp7104
a(g1501
S'GUGC'
p7105
tp7106
a(g1338
S'CCUA'
p7107
tp7108
a(g1282
S'GAUA'
p7109
tp7110
a(g1320
S'CAAU'
p7111
tp7112
a(g1349
S'AACC'
p7113
tp7114
a(g1363
S'UGUG'
p7115
tp7116
a(g1249
S'UUGC'
p7117
tp7118
a(g1443
S'GAUG'
p7119
tp7120
a(g1352
S'CAAC'
p7121
tp7122
a(g1367
S'CGCA'
p7123
tp7124
a(g1262
S'GUGA'
p7125
tp7126
a(g1431
S'GGCG'
p7127
tp7128
a(g1498
S'GGAC'
p7129
tp7130
a(g1374
S'CGCA'
p7131
tp7132
a(g1483
S'UAAG'
p7133
tp7134
a(g1405
S'AUGC'
p7135
tp7136
a(g1327
S'AUGG'
p7137
tp7138
a(g1381
S'AGCC'
p7139
tp7140
a(g1492
S'CGCU'
p7141
tp7142
a(g1334
S'ACCA'
p7143
tp7144
a(g1268
S'UCCC'
p7145
tp7146
a(g1437
S'CGGC'
p7147
tp7148
a(g1479
S'GACA'
p7149
tp7150
a(g1434
S'AGAG'
p7151
tp7152
a(g1465
S'CCAC'
p7153
tp7154
a(g1294
S'UCGA'
p7155
tp7156
a(g1419
S'AACG'
p7157
tp7158
a(g1392
S'AUUU'
p7159
tp7160
a(g1354
S'CAUA'
p7161
tp7162
a(g1351
S'CACU'
p7163
tp7164
a(g1405
S'ACCC'
p7165
tp7166
a(g1461
S'GCGC'
p7167
tp7168
a(g1396
S'CCCU'
p7169
tp7170
a(g1499
S'GGAU'
p7171
tp7172
a(g1459
S'GCUU'
p7173
tp7174
a(g1388
S'CUGU'
p7175
tp7176
a(g1379
S'AUAG'
p7177
tp7178
a(g1289
S'AAAC'
p7179
tp7180
a(g1340
S'ACGU'
p7181
tp7182
a(g1265
S'UCAC'
p7183
tp7184
a(g1433
S'AGGC'
p7185
tp7186
a(g1329
S'CGUC'
p7187
tp7188
a(g1361
S'AGUC'
p7189
tp7190
a(g1440
S'GUUA'
p7191
tp7192
a(g1368
S'UGAU'
p7193
tp7194
a(g1282
S'UAUG'
p7195
tp7196
a(g1477
S'GUCC'
p7197
tp7198
a(g1321
S'CUUC'
p7199
tp7200
a(g1452
S'CUGU'
p7201
tp7202
a(g1343
S'CCCG'
p7203
tp7204
a(g1414
S'ACCA'
p7205
tp7206
a(g1484
S'CAGU'
p7207
tp7208
a(g1286
S'UACC'
p7209
tp7210
a(g1264
S'UAUU'
p7211
tp7212
a(g1355
S'CUAG'
p7213
tp7214
a(g1377
S'ACUC'
p7215
tp7216
a(g1277
S'UCAC'
p7217
tp7218
a(g1353
S'CAUC'
p7219
tp7220
a(g1291
S'UAAC'
p7221
tp7222
a(g1425
S'AGAC'
p7223
tp7224
a(g1394
S'AAUA'
p7225
tp7226
a(g1445
S'GUCU'
p7227
tp7228
a(g1436
S'AGUU'
p7229
tp7230
a(g1339
S'GCAG'
p7231
tp7232
a(g1478
S'GAGA'
p7233
tp7234
a(g1340
S'CAGU'
p7235
tp7236
a(g1456
S'GCUG'
p7237
tp7238
a(g1354
S'CACA'
p7239
tp7240
a(g1498
S'GGUA'
p7241
tp7242
a(g1427
S'AGAG'
p7243
tp7244
a(g1470
S'GGGA'
p7245
tp7246
a(g1365
S'AGCC'
p7247
tp7248
a(g1447
S'GUCU'
p7249
tp7250
a(g1356
S'CAAU'
p7251
tp7252
a(g1425
S'AGGC'
p7253
tp7254
a(g1484
S'AAGU'
p7255
tp7256
a(g1402
S'ACGA'
p7257
tp7258
a(g1474
S'GAUC'
p7259
tp7260
a(g1284
S'UACC'
p7261
tp7262
a(g1312
S'GUUU'
p7263
tp7264
a(g1448
S'GUAC'
p7265
tp7266
a(g1503
S'GGAG'
p7267
tp7268
a(g1369
S'AGAC'
p7269
tp7270
a(g1320
S'CCAU'
p7271
tp7272
a(g1408
S'AAGU'
p7273
tp7274
a(g1313
S'CUAC'
p7275
tp7276
a(g1374
S'CCGA'
p7277
tp7278
a(g1495
S'GACG'
p7279
tp7280
a(g1474
S'GCUA'
p7281
tp7282
a(g1485
S'GAAC'
p7283
tp7284
a(g1497
S'GGUC'
p7285
tp7286
a(g1358
S'CAAA'
p7287
tp7288
a(g1296
S'UAUU'
p7289
tp7290
a(g1460
S'GGCU'
p7291
tp7292
a(g1450
S'GGAA'
p7293
tp7294
a(g1312
S'CUUA'
p7295
tp7296
a(g1315
S'CUCG'
p7297
tp7298
a(g1465
S'GCCC'
p7299
tp7300
a(g1290
S'GAAA'
p7301
tp7302
a(g1248
S'UUAU'
p7303
tp7304
a(g1259
S'UUAC'
p7305
tp7306
a(g1499
S'GGAA'
p7307
tp7308
a(g1487
S'UAGG'
p7309
tp7310
a(g1424
S'AGCU'
p7311
tp7312
a(g1271
S'ACCG'
p7313
tp7314
a(g1315
S'CUUU'
p7315
tp7316
a(g1282
S'UAAA'
p7317
tp7318
a(g1268
S'CCCU'
p7319
tp7320
a(g1450
S'GUCA'
p7321
tp7322
a(g1337
S'CGAC'
p7323
tp7324
a(g1347
S'CAGG'
p7325
tp7326
a(g1406
S'AUGA'
p7327
tp7328
a(g1275
S'UAAG'
p7329
tp7330
a(g1417
S'UAAC'
p7331
tp7332
a(g1313
S'CUUA'
p7333
tp7334
a(g1473
S'GAAC'
p7335
tp7336
a(g1481
S'GUAC'
p7337
tp7338
a(g1352
S'UAAU'
p7339
tp7340
a(g1432
S'AUAU'
p7341
tp7342
a(g1466
S'ACAA'
p7343
tp7344
a(g1427
S'AAUG'
p7345
tp7346
a(g1488
S'GGUC'
p7347
tp7348
a(g1500
S'CGGU'
p7349
tp7350
a(g1362
S'CGGA'
p7351
tp7352
a(g1318
S'CGCA'
p7353
tp7354
a(g1498
S'CGAA'
p7355
tp7356
a(g1401
S'AGAC'
p7357
tp7358
a(g1317
S'CCCC'
p7359
tp7360
a(g1489
S'GGUG'
p7361
tp7362
a(g1393
S'AAUC'
p7363
tp7364
a(g1311
S'UCGG'
p7365
tp7366
a(g1388
S'AUUU'
p7367
tp7368
a(g1300
S'UGCG'
p7369
tp7370
a(g1394
S'ACUU'
p7371
tp7372
a(g1499
S'UGAG'
p7373
tp7374
a(g1401
S'ACUC'
p7375
tp7376
a(g1395
S'AGUG'
p7377
tp7378
a(g1308
S'UGUU'
p7379
tp7380
a(g1460
S'GACU'
p7381
tp7382
a(g1457
S'GCAC'
p7383
tp7384
a(g1319
S'CUAG'
p7385
tp7386
a(g1406
S'ACGU'
p7387
tp7388
a(g1351
S'CAUG'
p7389
tp7390
a(g1446
S'GUCU'
p7391
tp7392
a(g1434
S'GGAA'
p7393
tp7394
a(g1488
S'GAUU'
p7395
tp7396
a(g1327
S'CGGG'
p7397
tp7398
a(g1477
S'GACA'
p7399
tp7400
a(g1428
S'CGCU'
p7401
tp7402
a(g1377
S'CUUC'
p7403
tp7404
a(g1376
S'UUUU'
p7405
tp7406
a(g1257
S'UUAA'
p7407
tp7408
a(g1465
S'GCAG'
p7409
tp7410
a(g1297
S'UAUC'
p7411
tp7412
a(g1454
S'GUGU'
p7413
tp7414
a(g1333
S'CUCC'
p7415
tp7416
a(g1407
S'CCGG'
p7417
tp7418
a(g1276
S'UCGC'
p7419
tp7420
a(g1334
S'GCCA'
p7421
tp7422
a(g1308
S'UGGG'
p7423
tp7424
a(g1268
S'UCUU'
p7425
tp7426
a(g1289
S'UAUC'
p7427
tp7428
a(g1262
S'UGGA'
p7429
tp7430
a(g1494
S'GACA'
p7431
tp7432
a(g1500
S'GGCU'
p7433
tp7434
a(g1319
S'CUGG'
p7435
tp7436
a(g1464
S'ACAU'
p7437
tp7438
a(g1324
S'CUGC'
p7439
tp7440
a(g1492
S'GGUU'
p7441
tp7442
a(g1482
S'GAGA'
p7443
tp7444
a(g1324
S'AUGU'
p7445
tp7446
a(g1360
S'CGUG'
p7447
tp7448
a(g1280
S'UACU'
p7449
tp7450
a(g1298
S'UGUG'
p7451
tp7452
a(g1467
S'GAAG'
p7453
tp7454
a(g1484
S'GAGC'
p7455
tp7456
a(g1252
S'UUCA'
p7457
tp7458
a(g1400
S'ACAG'
p7459
tp7460
a(g1381
S'AUCU'
p7461
tp7462
a(g1424
S'AGAU'
p7463
tp7464
a(g1380
S'AUCC'
p7465
tp7466
a(g1476
S'GAAU'
p7467
tp7468
a(g1341
S'ACGC'
p7469
tp7470
a(g1458
S'GCGA'
p7471
tp7472
a(g1362
S'CAUA'
p7473
tp7474
a(g1363
S'CAUG'
p7475
tp7476
a(g1402
S'AUAA'
p7477
tp7478
a(g1336
S'GCAU'
p7479
tp7480
a(g1426
S'AGCA'
p7481
tp7482
a(g1473
S'GAUG'
p7483
tp7484
a(g1499
S'GGCG'
p7485
tp7486
a(g1423
S'GAGG'
p7487
tp7488
a(g1358
S'CUGA'
p7489
tp7490
a(g1478
S'GCCA'
p7491
tp7492
a(g1406
S'ACGG'
p7493
tp7494
a(g1409
S'AUUC'
p7495
tp7496
a(g1450
S'UUAA'
p7497
tp7498
a(g1295
S'UAGA'
p7499
tp7500
a(g1493
S'GGGC'
p7501
tp7502
a(g1292
S'UAGC'
p7503
tp7504
a(g1251
S'UUUU'
p7505
tp7506
a(g1283
S'UAUC'
p7507
tp7508
a(g1315
S'CUGG'
p7509
tp7510
a(g1480
S'AAAU'
p7511
tp7512
a(g1488
S'GGUA'
p7513
tp7514
a(g1449
S'GUGC'
p7515
tp7516
a(g1276
S'UCCU'
p7517
tp7518
a(g1264
S'UUUU'
p7519
tp7520
a(g1292
S'CAGU'
p7521
tp7522
a(g1418
S'CAAA'
p7523
tp7524
a(g1411
S'ACUG'
p7525
tp7526
a(g1443
S'GCUG'
p7527
tp7528
a(g1413
S'AACG'
p7529
tp7530
a(g1495
S'GGUG'
p7531
tp7532
a(g1249
S'UAUC'
p7533
tp7534
a(g1303
S'UUCG'
p7535
tp7536
a(g1285
S'CACC'
p7537
tp7538
a(g1486
S'UAGA'
p7539
tp7540
a(g1432
S'AAAU'
p7541
tp7542
a(g1477
S'GAAC'
p7543
tp7544
a(g1301
S'UCCC'
p7545
tp7546
a(g1362
S'GGUA'
p7547
tp7548
a(g1502
S'GCGA'
p7549
tp7550
a(g1413
S'AAGC'
p7551
tp7552
a(g1337
S'CCAA'
p7553
tp7554
a(g1462
S'GCAA'
p7555
tp7556
a(g1371
S'CCAG'
p7557
tp7558
a(g1382
S'AGCA'
p7559
tp7560
a(g1381
S'AUGC'
p7561
tp7562
a(g1281
S'UAGC'
p7563
tp7564
a(g1416
S'AAAA'
p7565
tp7566
a(g1370
S'CGUA'
p7567
tp7568
a(g1462
S'UCCA'
p7569
tp7570
a(g1298
S'UGUU'
p7571
tp7572
a(g1424
S'AGUC'
p7573
tp7574
a(g1268
S'GCCU'
p7575
tp7576
a(g1381
S'AUCG'
p7577
tp7578
a(g1322
S'CAAA'
p7579
tp7580
a(g1271
S'UUCG'
p7581
tp7582
a(g1475
S'GUUG'
p7583
tp7584
a(g1398
S'ACAA'
p7585
tp7586
a(g1319
S'CCCG'
p7587
tp7588
a(g1386
S'AUAC'
p7589
tp7590
a(g1360
S'CGAU'
p7591
tp7592
a(g1311
S'AGGG'
p7593
tp7594
a(g1433
S'AGAA'
p7595
tp7596
a(g1257
S'CUAC'
p7597
tp7598
a(g1390
S'AAGA'
p7599
tp7600
a(g1267
S'UCGG'
p7601
tp7602
a(g1311
S'GGGG'
p7603
tp7604
a(g1345
S'CACC'
p7605
tp7606
a(g1456
S'ACUU'
p7607
tp7608
a(g1338
S'UCAA'
p7609
tp7610
a(g1344
S'CAUG'
p7611
tp7612
a(g1382
S'UUCA'
p7613
tp7614
a(g1390
S'AUUA'
p7615
tp7616
a(g1332
S'CCAU'
p7617
tp7618
a(g1476
S'GUCU'
p7619
tp7620
a(g1411
S'AACG'
p7621
tp7622
a(g1258
S'UAAA'
p7623
tp7624
a(g1248
S'UUCU'
p7625
tp7626
a(g1327
S'CUUG'
p7627
tp7628
a(g1357
S'CACC'
p7629
tp7630
a(g1294
S'UAUA'
p7631
tp7632
a(g1391
S'AUUG'
p7633
tp7634
a(g1270
S'UCUA'
p7635
tp7636
a(g1254
S'AUCA'
p7637
tp7638
a(g1486
S'CAGA'
p7639
tp7640
a(g1370
S'CCAA'
p7641
tp7642
a(g1315
S'CGUG'
p7643
tp7644
a(g1307
S'UGAU'
p7645
tp7646
a(g1483
S'GAAC'
p7647
tp7648
atp7649
Rp7650
a(dp7651
g4
F7.0
sg3
F11.5
sg21
F12.5
sg20
F13.0
sg5
F7.9
sg15
F5.0
sg11
F4.9
sg23
F8.4
sg24
F10.1
sg13
F5.3
sg10
F4.9
sg18
F10.0
sg19
F8.6
sg12
F6.6
sg14
F7.5
sg22
F9.1
sg2
F6.6
sg17
F5.3
sg9
F5.6
sg16
F5.7
sa(dp7652
g25
I0
sS'0'
p7653
I0
sg4
F1.8
sg3
F2.5
sg21
F-3.5
sg20
F-3.5
sg5
F-0.4
sg15
F2.8
sg11
F4.5
sg23
F-3.2
sg24
F-3.9
sg13
F1.9
sg10
F3.8
sg18
F-3.5
sg19
F-3.5
sg12
F-1.6
sg14
F-0.8
sg22
F-4.5
sg2
F-0.7
sg17
F-0.9
sg9
F4.2
sg16
F-1.3
sa.